(dp0
S'count'
p1
(lp2
(lp3
(lp4
I12
aI4
aI35
aI8
aa(lp5
I19
aI15
aI19
aI6
aa(lp6
I14
aI20
aI15
aI10
aa(lp7
I19
aI12
aI10
aI18
aa(lp8
I14
aI3
aI27
aI15
aa(lp9
I1
aI24
aI17
aI17
aa(lp10
I13
aI22
aI17
aI7
aa(lp11
I9
aI20
aI11
aI19
aa(lp12
I0
aI20
aI37
aI2
aa(lp13
I26
aI8
aI16
aI9
aa(lp14
I0
aI38
aI0
aI21
aa(lp15
I9
aI12
aI22
aI16
aa(lp16
I15
aI1
aI43
aI0
aa(lp17
I11
aI12
aI14
aI22
aa(lp18
I0
aI4
aI55
aI0
aa(lp19
I16
aI16
aI8
aI19
aa(lp20
I9
aI12
aI18
aI20
aa(lp21
I8
aI12
aI30
aI9
aa(lp22
I11
aI6
aI12
aI30
aa(lp23
I13
aI12
aI22
aI12
aa(lp24
I10
aI22
aI7
aI20
aa(lp25
I0
aI57
aI2
aI0
aa(lp26
I10
aI11
aI6
aI32
aa(lp27
I19
aI27
aI4
aI9
aa(lp28
I9
aI35
aI0
aI15
aa(lp29
I26
aI3
aI8
aI22
aa(lp30
I8
aI6
aI22
aI23
aa(lp31
I17
aI26
aI3
aI13
aa(lp32
I7
aI23
aI24
aI5
aa(lp33
I26
aI7
aI11
aI15
aa(lp34
I9
aI7
aI6
aI37
aa(lp35
I6
aI30
aI8
aI15
aa(lp36
I23
aI5
aI24
aI7
aa(lp37
I18
aI12
aI10
aI19
aa(lp38
I7
aI17
aI9
aI26
aa(lp39
I12
aI6
aI12
aI29
aa(lp40
I9
aI37
aI6
aI7
aa(lp41
I7
aI11
aI21
aI20
aa(lp42
I9
aI16
aI8
aI26
aa(lp43
I11
aI11
aI25
aI12
aa(lp44
I25
aI8
aI14
aI12
aa(lp45
I19
aI3
aI10
aI27
aa(lp46
I9
aI18
aI25
aI7
aa(lp47
I25
aI0
aI18
aI16
aa(lp48
I4
aI31
aI18
aI6
aa(lp49
I21
aI18
aI12
aI8
aa(lp50
I0
aI0
aI0
aI59
aa(lp51
I10
aI16
aI9
aI24
aa(lp52
I12
aI15
aI11
aI21
aa(lp53
I8
aI31
aI10
aI10
aa(lp54
I15
aI27
aI16
aI1
aa(lp55
I4
aI10
aI16
aI29
aa(lp56
I2
aI27
aI15
aI15
aa(lp57
I5
aI9
aI27
aI18
aa(lp58
I3
aI13
aI14
aI29
aa(lp59
I5
aI12
aI20
aI22
aa(lp60
I18
aI23
aI3
aI15
aa(lp61
I7
aI38
aI3
aI11
aa(lp62
I26
aI10
aI11
aI12
aa(lp63
I11
aI9
aI31
aI8
aa(lp64
I12
aI10
aI9
aI28
aa(lp65
I27
aI27
aI2
aI3
aa(lp66
I15
aI16
aI9
aI19
aa(lp67
I7
aI12
aI11
aI29
aa(lp68
I14
aI21
aI20
aI4
aa(lp69
I5
aI8
aI25
aI21
aa(lp70
I9
aI35
aI11
aI4
aa(lp71
I23
aI21
aI10
aI5
aa(lp72
I18
aI15
aI8
aI18
aa(lp73
I25
aI17
aI1
aI16
aa(lp74
I22
aI24
aI10
aI3
aa(lp75
I53
aI0
aI2
aI4
aa(lp76
I13
aI8
aI26
aI12
aa(lp77
I21
aI7
aI7
aI24
aa(lp78
I22
aI16
aI17
aI4
aa(lp79
I26
aI2
aI11
aI20
aa(lp80
I15
aI28
aI3
aI13
aa(lp81
I17
aI10
aI8
aI24
aa(lp82
I3
aI9
aI22
aI25
aa(lp83
I16
aI9
aI6
aI28
aa(lp84
I10
aI12
aI23
aI14
aa(lp85
I10
aI15
aI26
aI8
aa(lp86
I24
aI15
aI4
aI16
aa(lp87
I6
aI9
aI5
aI39
aa(lp88
I9
aI14
aI13
aI23
aa(lp89
I14
aI20
aI9
aI16
aa(lp90
I8
aI22
aI18
aI11
aa(lp91
I8
aI11
aI26
aI14
aa(lp92
I7
aI14
aI23
aI15
aa(lp93
I56
aI2
aI1
aI0
aa(lp94
I4
aI14
aI26
aI15
aa(lp95
I7
aI5
aI22
aI25
aa(lp96
I13
aI22
aI13
aI11
aa(lp97
I11
aI22
aI19
aI7
aa(lp98
I13
aI7
aI16
aI23
aa(lp99
I27
aI14
aI17
aI1
aa(lp100
I15
aI26
aI18
aI0
aa(lp101
I10
aI1
aI22
aI26
aa(lp102
I13
aI17
aI7
aI22
aa(lp103
I17
aI14
aI17
aI11
aaa(lp104
(lp105
I56
aI34
aI144
aI25
aa(lp106
I96
aI85
aI43
aI35
aa(lp107
I64
aI78
aI63
aI54
aa(lp108
I55
aI60
aI80
aI64
aa(lp109
I46
aI24
aI109
aI80
aa(lp110
I14
aI99
aI96
aI50
aa(lp111
I67
aI86
aI84
aI22
aa(lp112
I38
aI81
aI48
aI92
aa(lp113
I87
aI128
aI37
aI7
aa(lp114
I96
aI38
aI77
aI48
aa(lp115
I43
aI15
aI182
aI19
aa(lp116
I19
aI48
aI94
aI98
aa(lp117
I67
aI41
aI32
aI119
aa(lp118
I0
aI0
aI259
aI0
aa(lp119
I136
aI110
aI0
aI13
aa(lp120
I59
aI70
aI42
aI88
aa(lp121
I33
aI59
aI106
aI61
aa(lp122
I31
aI51
aI134
aI43
aa(lp123
I60
aI19
aI56
aI124
aa(lp124
I32
aI86
aI4
aI137
aa(lp125
I55
aI87
aI44
aI73
aa(lp126
I49
aI78
aI14
aI118
aa(lp127
I34
aI60
aI31
aI134
aa(lp128
I86
aI101
aI28
aI44
aa(lp129
I44
aI200
aI11
aI4
aa(lp130
I108
aI8
aI27
aI116
aa(lp131
I29
aI32
aI116
aI82
aa(lp132
I44
aI104
aI26
aI85
aa(lp133
I43
aI71
aI111
aI34
aa(lp134
I95
aI27
aI82
aI55
aa(lp135
I37
aI28
aI38
aI156
aa(lp136
I20
aI120
aI42
aI77
aa(lp137
I81
aI12
aI115
aI51
aa(lp138
I85
aI31
aI24
aI119
aa(lp139
I43
aI41
aI31
aI144
aa(lp140
I72
aI30
aI41
aI116
aa(lp141
I37
aI178
aI26
aI18
aa(lp142
I24
aI61
aI95
aI79
aa(lp143
I39
aI64
aI32
aI124
aa(lp144
I49
aI41
aI114
aI55
aa(lp145
I98
aI51
aI58
aI52
aa(lp146
I72
aI19
aI49
aI119
aa(lp147
I35
aI79
aI91
aI54
aa(lp148
I64
aI11
aI108
aI76
aa(lp149
I18
aI129
aI69
aI43
aa(lp150
I106
aI55
aI57
aI41
aa(lp151
I117
aI52
aI59
aI31
aa(lp152
I48
aI70
aI49
aI92
aa(lp153
I48
aI48
aI61
aI102
aa(lp154
I39
aI130
aI39
aI51
aa(lp155
I70
aI114
aI70
aI5
aa(lp156
I14
aI38
aI72
aI135
aa(lp157
I38
aI87
aI51
aI83
aa(lp158
I37
aI38
aI129
aI55
aa(lp159
I27
aI61
aI83
aI88
aa(lp160
I35
aI65
aI99
aI60
aa(lp161
I103
aI86
aI25
aI45
aa(lp162
I30
aI158
aI11
aI60
aa(lp163
I76
aI58
aI52
aI73
aa(lp164
I52
aI46
aI108
aI53
aa(lp165
I46
aI57
aI49
aI107
aa(lp166
I104
aI135
aI5
aI15
aa(lp167
I77
aI59
aI61
aI62
aa(lp168
I42
aI32
aI76
aI109
aa(lp169
I0
aI0
aI0
aI259
aa(lp170
I47
aI60
aI83
aI69
aa(lp171
I91
aI44
aI14
aI110
aa(lp172
I68
aI85
aI52
aI54
aa(lp173
I78
aI73
aI36
aI72
aa(lp174
I257
aI2
aI0
aI0
aa(lp175
I82
aI117
aI54
aI6
aa(lp176
I116
aI57
aI27
aI59
aa(lp177
I0
aI0
aI259
aI0
aa(lp178
I68
aI41
aI31
aI119
aa(lp179
I84
aI78
aI84
aI13
aa(lp180
I0
aI259
aI0
aI0
aa(lp181
I47
aI125
aI14
aI73
aa(lp182
I79
aI82
aI31
aI67
aa(lp183
I18
aI56
aI69
aI116
aa(lp184
I96
aI22
aI31
aI110
aa(lp185
I53
aI60
aI83
aI63
aa(lp186
I41
aI59
aI104
aI55
aa(lp187
I65
aI69
aI53
aI72
aa(lp188
I24
aI36
aI46
aI153
aa(lp189
I0
aI233
aI26
aI0
aa(lp190
I72
aI81
aI50
aI56
aa(lp191
I52
aI82
aI64
aI61
aa(lp192
I38
aI57
aI80
aI84
aa(lp193
I39
aI66
aI103
aI51
aa(lp194
I52
aI60
aI59
aI88
aa(lp195
I259
aI0
aI0
aI0
aa(lp196
I36
aI26
aI90
aI107
aa(lp197
I69
aI97
aI33
aI60
aa(lp198
I56
aI90
aI60
aI53
aa(lp199
I56
aI39
aI39
aI125
aa(lp200
I93
aI53
aI101
aI12
aa(lp201
I57
aI88
aI112
aI2
aa(lp202
I45
aI18
aI76
aI120
aa(lp203
I56
aI66
aI45
aI92
aa(lp204
I100
aI51
aI57
aI51
aaa(lp205
(lp206
I5
aI6
aI15
aI7
aa(lp207
I9
aI11
aI8
aI5
aa(lp208
I5
aI12
aI5
aI11
aa(lp209
I6
aI9
aI12
aI6
aa(lp210
I8
aI4
aI11
aI10
aa(lp211
I1
aI11
aI15
aI6
aa(lp212
I1
aI0
aI29
aI3
aa(lp213
I8
aI11
aI5
aI9
aa(lp214
I17
aI12
aI4
aI0
aa(lp215
I11
aI5
aI8
aI9
aa(lp216
I7
aI3
aI21
aI2
aa(lp217
I4
aI9
aI8
aI12
aa(lp218
I6
aI7
aI2
aI18
aa(lp219
I4
aI7
aI7
aI15
aa(lp220
I10
aI6
aI8
aI9
aa(lp221
I8
aI9
aI6
aI10
aa(lp222
I0
aI0
aI33
aI0
aa(lp223
I4
aI5
aI16
aI8
aa(lp224
I3
aI3
aI6
aI21
aa(lp225
I7
aI8
aI12
aI6
aa(lp226
I8
aI15
aI2
aI8
aa(lp227
I5
aI6
aI4
aI18
aa(lp228
I4
aI8
aI4
aI17
aa(lp229
I0
aI0
aI30
aI3
aa(lp230
I2
aI26
aI0
aI5
aa(lp231
I23
aI1
aI3
aI6
aa(lp232
I2
aI1
aI20
aI10
aa(lp233
I8
aI9
aI3
aI13
aa(lp234
I10
aI3
aI16
aI4
aa(lp235
I14
aI3
aI10
aI6
aa(lp236
I9
aI1
aI5
aI18
aa(lp237
I2
aI14
aI10
aI7
aa(lp238
I1
aI0
aI11
aI21
aa(lp239
I12
aI3
aI4
aI14
aa(lp240
I7
aI7
aI4
aI15
aa(lp241
I6
aI2
aI9
aI16
aa(lp242
I5
aI23
aI2
aI3
aa(lp243
I1
aI7
aI17
aI8
aa(lp244
I2
aI9
aI3
aI19
aa(lp245
I6
aI6
aI9
aI12
aa(lp246
I13
aI8
aI8
aI4
aa(lp247
I8
aI1
aI5
aI19
aa(lp248
I4
aI7
aI15
aI7
aa(lp249
I10
aI2
aI12
aI9
aa(lp250
I17
aI12
aI4
aI0
aa(lp251
I16
aI6
aI8
aI3
aa(lp252
I14
aI6
aI7
aI6
aa(lp253
I5
aI9
aI5
aI14
aa(lp254
I1
aI10
aI3
aI19
aa(lp255
I9
aI14
aI3
aI7
aa(lp256
I10
aI16
aI7
aI0
aa(lp257
I4
aI5
aI12
aI12
aa(lp258
I4
aI10
aI9
aI10
aa(lp259
I6
aI5
aI14
aI8
aa(lp260
I2
aI24
aI0
aI7
aa(lp261
I3
aI6
aI15
aI9
aa(lp262
I10
aI14
aI0
aI9
aa(lp263
I2
aI19
aI0
aI12
aa(lp264
I10
aI8
aI8
aI7
aa(lp265
I0
aI14
aI1
aI18
aa(lp266
I7
aI6
aI5
aI15
aa(lp267
I10
aI20
aI2
aI1
aa(lp268
I13
aI4
aI7
aI9
aa(lp269
I6
aI5
aI9
aI13
aa(lp270
I6
aI9
aI17
aI1
aa(lp271
I5
aI4
aI16
aI8
aa(lp272
I13
aI0
aI3
aI17
aa(lp273
I9
aI15
aI4
aI5
aa(lp274
I8
aI14
aI6
aI5
aa(lp275
I12
aI10
aI2
aI9
aa(lp276
I10
aI11
aI8
aI4
aa(lp277
I15
aI3
aI2
aI13
aa(lp278
I11
aI3
aI12
aI7
aa(lp279
I11
aI5
aI4
aI13
aa(lp280
I9
aI10
aI12
aI2
aa(lp281
I15
aI3
aI6
aI9
aa(lp282
I10
aI16
aI0
aI7
aa(lp283
I8
aI15
aI3
aI7
aa(lp284
I1
aI8
aI9
aI15
aa(lp285
I8
aI3
aI4
aI18
aa(lp286
I7
aI5
aI9
aI12
aa(lp287
I4
aI0
aI21
aI8
aa(lp288
I14
aI10
aI4
aI5
aa(lp289
I5
aI5
aI5
aI18
aa(lp290
I7
aI11
aI5
aI10
aa(lp291
I10
aI8
aI9
aI6
aa(lp292
I6
aI11
aI5
aI11
aa(lp293
I8
aI7
aI12
aI6
aa(lp294
I3
aI13
aI10
aI7
aa(lp295
I4
aI8
aI5
aI16
aa(lp296
I5
aI9
aI10
aI9
aa(lp297
I4
aI4
aI13
aI12
aa(lp298
I8
aI12
aI4
aI9
aa(lp299
I8
aI7
aI9
aI9
aa(lp300
I0
aI3
aI6
aI24
aa(lp301
I12
aI9
aI8
aI4
aa(lp302
I6
aI14
aI12
aI1
aa(lp303
I5
aI3
aI11
aI14
aa(lp304
I3
aI13
aI9
aI8
aa(lp305
I15
aI7
aI8
aI3
aaa(lp306
(lp307
I34
aI9
aI91
aI14
aa(lp308
I50
aI50
aI31
aI17
aa(lp309
I28
aI45
aI37
aI38
aa(lp310
I50
aI0
aI21
aI77
aa(lp311
I29
aI11
aI63
aI45
aa(lp312
I7
aI56
aI55
aI30
aa(lp313
I38
aI48
aI55
aI7
aa(lp314
I28
aI48
aI19
aI53
aa(lp315
I16
aI6
aI77
aI49
aa(lp316
I52
aI18
aI41
aI37
aa(lp317
I28
aI11
aI100
aI9
aa(lp318
I17
aI32
aI52
aI47
aa(lp319
I11
aI69
aI10
aI58
aa(lp320
I25
aI18
aI38
aI67
aa(lp321
I68
aI18
aI17
aI45
aa(lp322
I31
aI39
aI30
aI48
aa(lp323
I25
aI26
aI59
aI38
aa(lp324
I29
aI42
aI53
aI24
aa(lp325
I36
aI17
aI30
aI65
aa(lp326
I36
aI25
aI47
aI40
aa(lp327
I30
aI53
aI19
aI46
aa(lp328
I16
aI46
aI10
aI76
aa(lp329
I0
aI148
aI0
aI0
aa(lp330
I52
aI37
aI26
aI33
aa(lp331
I16
aI101
aI3
aI28
aa(lp332
I63
aI9
aI13
aI63
aa(lp333
I11
aI19
aI71
aI47
aa(lp334
I38
aI52
aI22
aI36
aa(lp335
I22
aI47
aI67
aI12
aa(lp336
I63
aI20
aI38
aI27
aa(lp337
I25
aI15
aI16
aI92
aa(lp338
I16
aI75
aI16
aI41
aa(lp339
I57
aI6
aI68
aI17
aa(lp340
I49
aI22
aI15
aI62
aa(lp341
I29
aI24
aI28
aI67
aa(lp342
I40
aI16
aI26
aI66
aa(lp343
I19
aI98
aI20
aI11
aa(lp344
I6
aI37
aI52
aI53
aa(lp345
I16
aI43
aI21
aI68
aa(lp346
I32
aI32
aI52
aI32
aa(lp347
I66
aI33
aI31
aI18
aa(lp348
I2
aI14
aI31
aI101
aa(lp349
I35
aI46
aI42
aI25
aa(lp350
I36
aI7
aI56
aI49
aa(lp351
I9
aI80
aI35
aI24
aa(lp352
I104
aI0
aI38
aI6
aa(lp353
I63
aI23
aI39
aI23
aa(lp354
I26
aI36
aI14
aI72
aa(lp355
I33
aI23
aI34
aI58
aa(lp356
I2
aI61
aI52
aI33
aa(lp357
I37
aI56
aI46
aI9
aa(lp358
I4
aI32
aI38
aI74
aa(lp359
I15
aI53
aI35
aI45
aa(lp360
I20
aI39
aI66
aI23
aa(lp361
I14
aI33
aI47
aI54
aa(lp362
I19
aI39
aI54
aI36
aa(lp363
I0
aI1
aI58
aI89
aa(lp364
I14
aI92
aI6
aI36
aa(lp365
I46
aI27
aI33
aI42
aa(lp366
I30
aI20
aI66
aI32
aa(lp367
I17
aI36
aI32
aI63
aa(lp368
I60
aI74
aI7
aI7
aa(lp369
I39
aI39
aI24
aI46
aa(lp370
I28
aI21
aI44
aI55
aa(lp371
I26
aI48
aI66
aI8
aa(lp372
I29
aI26
aI51
aI42
aa(lp373
I57
aI24
aI8
aI59
aa(lp374
I48
aI51
aI24
aI25
aa(lp375
I60
aI45
aI14
aI29
aa(lp376
I58
aI44
aI7
aI39
aa(lp377
I55
aI61
aI29
aI3
aa(lp378
I67
aI27
aI17
aI37
aa(lp379
I56
aI17
aI41
aI34
aa(lp380
I26
aI25
aI20
aI77
aa(lp381
I48
aI41
aI51
aI8
aa(lp382
I57
aI10
aI24
aI57
aa(lp383
I25
aI74
aI6
aI43
aa(lp384
I44
aI40
aI21
aI43
aa(lp385
I14
aI43
aI35
aI56
aa(lp386
I48
aI21
aI21
aI58
aa(lp387
I38
aI31
aI40
aI39
aa(lp388
I33
aI32
aI45
aI38
aa(lp389
I0
aI0
aI0
aI148
aa(lp390
I13
aI24
aI19
aI92
aa(lp391
I17
aI42
aI35
aI54
aa(lp392
I33
aI49
aI33
aI33
aa(lp393
I27
aI38
aI44
aI39
aa(lp394
I25
aI37
aI40
aI46
aa(lp395
I12
aI40
aI66
aI30
aa(lp396
I27
aI37
aI32
aI52
aa(lp397
I17
aI45
aI58
aI28
aa(lp398
I19
aI15
aI51
aI63
aa(lp399
I128
aI0
aI2
aI18
aa(lp400
I25
aI60
aI40
aI23
aa(lp401
I25
aI21
aI31
aI71
aa(lp402
I53
aI26
aI52
aI17
aa(lp403
I29
aI59
aI60
aI0
aa(lp404
I26
aI5
aI60
aI57
aa(lp405
I27
aI35
aI27
aI59
aa(lp406
I63
aI32
aI20
aI33
aaa(lp407
(lp408
I8
aI6
aI44
aI6
aa(lp409
I20
aI26
aI14
aI4
aa(lp410
I15
aI24
aI9
aI16
aa(lp411
I12
aI16
aI18
aI18
aa(lp412
I4
aI7
aI31
aI22
aa(lp413
I4
aI23
aI28
aI9
aa(lp414
I22
aI21
aI18
aI3
aa(lp415
I17
aI15
aI9
aI23
aa(lp416
I25
aI32
aI6
aI1
aa(lp417
I17
aI14
aI17
aI16
aa(lp418
I15
aI3
aI40
aI6
aa(lp419
I8
aI10
aI30
aI16
aa(lp420
I25
aI7
aI8
aI24
aa(lp421
I8
aI14
aI15
aI27
aa(lp422
I34
aI9
aI10
aI11
aa(lp423
I14
aI17
aI13
aI20
aa(lp424
I13
aI17
aI18
aI16
aa(lp425
I11
aI16
aI30
aI7
aa(lp426
I10
aI5
aI19
aI30
aa(lp427
I16
aI12
aI23
aI13
aa(lp428
I12
aI20
aI14
aI18
aa(lp429
I8
aI22
aI5
aI29
aa(lp430
I8
aI10
aI11
aI35
aa(lp431
I20
aI25
aI7
aI12
aa(lp432
I7
aI41
aI2
aI14
aa(lp433
I27
aI2
aI8
aI27
aa(lp434
I4
aI10
aI31
aI19
aa(lp435
I0
aI29
aI33
aI2
aa(lp436
I9
aI16
aI30
aI9
aa(lp437
I27
aI9
aI15
aI13
aa(lp438
I6
aI0
aI56
aI2
aa(lp439
I5
aI26
aI10
aI23
aa(lp440
I15
aI6
aI31
aI12
aa(lp441
I22
aI9
aI13
aI20
aa(lp442
I14
aI15
aI8
aI27
aa(lp443
I15
aI8
aI15
aI26
aa(lp444
I11
aI41
aI3
aI9
aa(lp445
I2
aI22
aI20
aI20
aa(lp446
I8
aI22
aI7
aI27
aa(lp447
I9
aI9
aI31
aI15
aa(lp448
I22
aI12
aI20
aI10
aa(lp449
I18
aI1
aI16
aI29
aa(lp450
I14
aI15
aI23
aI12
aa(lp451
I19
aI1
aI28
aI16
aa(lp452
I5
aI34
aI16
aI9
aa(lp453
I33
aI12
aI13
aI6
aa(lp454
I32
aI9
aI13
aI10
aa(lp455
I5
aI18
aI8
aI33
aa(lp456
I19
aI8
aI14
aI23
aa(lp457
I12
aI27
aI9
aI16
aa(lp458
I13
aI26
aI24
aI1
aa(lp459
I4
aI6
aI26
aI28
aa(lp460
I9
aI23
aI16
aI16
aa(lp461
I9
aI12
aI33
aI10
aa(lp462
I5
aI12
aI18
aI29
aa(lp463
I6
aI12
aI31
aI15
aa(lp464
I23
aI24
aI7
aI10
aa(lp465
I9
aI42
aI2
aI11
aa(lp466
I8
aI18
aI34
aI4
aa(lp467
I11
aI10
aI31
aI12
aa(lp468
I15
aI15
aI4
aI30
aa(lp469
I29
aI32
aI2
aI1
aa(lp470
I13
aI17
aI11
aI23
aa(lp471
I36
aI27
aI0
aI1
aa(lp472
I19
aI17
aI24
aI4
aa(lp473
I0
aI0
aI1
aI63
aa(lp474
I26
aI15
aI5
aI18
aa(lp475
I16
aI34
aI8
aI6
aa(lp476
I22
aI23
aI8
aI11
aa(lp477
I27
aI17
aI3
aI17
aa(lp478
I21
aI26
aI15
aI2
aa(lp479
I31
aI11
aI3
aI19
aa(lp480
I25
aI7
aI20
aI12
aa(lp481
I16
aI9
aI4
aI35
aa(lp482
I22
aI22
aI18
aI2
aa(lp483
I33
aI5
aI12
aI14
aa(lp484
I17
aI29
aI3
aI15
aa(lp485
I23
aI17
aI8
aI16
aa(lp486
I0
aI41
aI23
aI0
aa(lp487
I9
aI14
aI41
aI0
aa(lp488
I10
aI12
aI25
aI17
aa(lp489
I7
aI30
aI17
aI10
aa(lp490
I18
aI19
aI9
aI18
aa(lp491
I5
aI10
aI10
aI39
aa(lp492
I8
aI15
aI9
aI32
aa(lp493
I16
aI21
aI14
aI13
aa(lp494
I10
aI17
aI14
aI23
aa(lp495
I19
aI11
aI20
aI14
aa(lp496
I8
aI10
aI27
aI19
aa(lp497
I13
aI14
aI14
aI23
aa(lp498
I9
aI15
aI28
aI12
aa(lp499
I0
aI64
aI0
aI0
aa(lp500
I14
aI24
aI12
aI14
aa(lp501
I0
aI27
aI37
aI0
aa(lp502
I8
aI11
aI10
aI35
aa(lp503
I25
aI11
aI22
aI6
aa(lp504
I22
aI18
aI24
aI0
aa(lp505
I6
aI7
aI20
aI31
aa(lp506
I14
aI18
aI14
aI18
aa(lp507
I21
aI15
aI13
aI15
aaa(lp508
(lp509
I11
aI5
aI22
aI9
aa(lp510
I32
aI5
aI10
aI0
aa(lp511
I6
aI18
aI9
aI14
aa(lp512
I13
aI6
aI18
aI10
aa(lp513
I4
aI4
aI24
aI15
aa(lp514
I1
aI21
aI16
aI9
aa(lp515
I9
aI0
aI0
aI38
aa(lp516
I14
aI14
aI7
aI12
aa(lp517
I31
aI0
aI8
aI8
aa(lp518
I17
aI5
aI15
aI10
aa(lp519
I6
aI4
aI36
aI1
aa(lp520
I6
aI7
aI18
aI16
aa(lp521
I18
aI6
aI3
aI20
aa(lp522
I5
aI9
aI13
aI20
aa(lp523
I27
aI5
aI3
aI12
aa(lp524
I9
aI14
aI8
aI16
aa(lp525
I8
aI11
aI21
aI7
aa(lp526
I8
aI0
aI39
aI0
aa(lp527
I10
aI6
aI14
aI17
aa(lp528
I15
aI11
aI11
aI10
aa(lp529
I12
aI15
aI8
aI12
aa(lp530
I33
aI14
aI0
aI0
aa(lp531
I3
aI16
aI8
aI20
aa(lp532
I14
aI21
aI5
aI7
aa(lp533
I4
aI33
aI1
aI9
aa(lp534
I24
aI2
aI3
aI18
aa(lp535
I2
aI2
aI32
aI11
aa(lp536
I5
aI22
aI6
aI14
aa(lp537
I14
aI14
aI18
aI1
aa(lp538
I11
aI7
aI15
aI14
aa(lp539
I11
aI0
aI5
aI31
aa(lp540
I8
aI25
aI8
aI6
aa(lp541
I17
aI3
aI21
aI6
aa(lp542
I19
aI8
aI4
aI16
aa(lp543
I6
aI9
aI5
aI27
aa(lp544
I14
aI7
aI7
aI19
aa(lp545
I10
aI30
aI3
aI4
aa(lp546
I5
aI12
aI15
aI15
aa(lp547
I8
aI13
aI9
aI17
aa(lp548
I11
aI5
aI17
aI14
aa(lp549
I21
aI12
aI9
aI5
aa(lp550
I10
aI3
aI10
aI24
aa(lp551
I9
aI17
aI8
aI13
aa(lp552
I17
aI1
aI20
aI9
aa(lp553
I2
aI19
aI19
aI7
aa(lp554
I19
aI15
aI8
aI5
aa(lp555
I21
aI6
aI11
aI9
aa(lp556
I11
aI10
aI5
aI21
aa(lp557
I15
aI11
aI5
aI16
aa(lp558
I10
aI18
aI8
aI11
aa(lp559
I12
aI24
aI11
aI0
aa(lp560
I1
aI7
aI14
aI25
aa(lp561
I5
aI13
aI17
aI12
aa(lp562
I8
aI12
aI21
aI6
aa(lp563
I9
aI9
aI10
aI19
aa(lp564
I6
aI16
aI18
aI7
aa(lp565
I20
aI12
aI7
aI8
aa(lp566
I5
aI26
aI3
aI13
aa(lp567
I1
aI0
aI0
aI46
aa(lp568
I9
aI9
aI18
aI11
aa(lp569
I0
aI0
aI0
aI47
aa(lp570
I22
aI16
aI3
aI6
aa(lp571
I14
aI10
aI12
aI11
aa(lp572
I6
aI3
aI11
aI27
aa(lp573
I7
aI15
aI18
aI7
aa(lp574
I5
aI10
aI20
aI12
aa(lp575
I17
aI8
aI3
aI19
aa(lp576
I12
aI20
aI6
aI9
aa(lp577
I12
aI11
aI8
aI16
aa(lp578
I20
aI13
aI1
aI13
aa(lp579
I19
aI19
aI6
aI3
aa(lp580
I11
aI0
aI27
aI9
aa(lp581
I13
aI5
aI20
aI9
aa(lp582
I14
aI9
aI9
aI15
aa(lp583
I20
aI16
aI7
aI4
aa(lp584
I0
aI47
aI0
aI0
aa(lp585
I7
aI30
aI0
aI10
aa(lp586
I20
aI9
aI2
aI16
aa(lp587
I3
aI12
aI10
aI22
aa(lp588
I17
aI8
aI7
aI15
aa(lp589
I12
aI10
aI8
aI17
aa(lp590
I7
aI8
aI26
aI6
aa(lp591
I11
aI12
aI11
aI13
aa(lp592
I1
aI5
aI7
aI34
aa(lp593
I7
aI14
aI10
aI16
aa(lp594
I0
aI2
aI45
aI0
aa(lp595
I14
aI8
aI8
aI17
aa(lp596
I6
aI11
aI17
aI13
aa(lp597
I11
aI13
aI14
aI9
aa(lp598
I5
aI13
aI9
aI20
aa(lp599
I2
aI10
aI21
aI14
aa(lp600
I3
aI4
aI14
aI26
aa(lp601
I12
aI16
aI9
aI10
aa(lp602
I14
aI20
aI10
aI3
aa(lp603
I7
aI4
aI13
aI23
aa(lp604
I15
aI8
aI21
aI3
aa(lp605
I6
aI19
aI21
aI1
aa(lp606
I11
aI4
aI13
aI19
aa(lp607
I14
aI12
aI5
aI16
aa(lp608
I18
aI10
aI8
aI11
aaa(lp609
(lp610
I29
aI18
aI60
aI20
aa(lp611
I72
aI0
aI15
aI40
aa(lp612
I31
aI39
aI26
aI31
aa(lp613
I39
aI27
aI36
aI25
aa(lp614
I28
aI10
aI54
aI35
aa(lp615
I7
aI53
aI45
aI22
aa(lp616
I32
aI37
aI51
aI7
aa(lp617
I25
aI32
aI24
aI46
aa(lp618
I118
aI4
aI0
aI5
aa(lp619
I41
aI17
aI44
aI25
aa(lp620
I18
aI13
aI86
aI10
aa(lp621
I8
aI21
aI47
aI51
aa(lp622
I36
aI19
aI15
aI57
aa(lp623
I24
aI22
aI25
aI56
aa(lp624
I58
aI18
aI16
aI35
aa(lp625
I47
aI5
aI49
aI26
aa(lp626
I20
aI27
aI53
aI27
aa(lp627
I10
aI38
aI61
aI18
aa(lp628
I22
aI14
aI19
aI72
aa(lp629
I24
aI22
aI63
aI18
aa(lp630
I38
aI34
aI14
aI41
aa(lp631
I20
aI34
aI11
aI62
aa(lp632
I21
aI21
aI13
aI72
aa(lp633
I41
aI46
aI16
aI24
aa(lp634
I20
aI74
aI2
aI31
aa(lp635
I54
aI7
aI11
aI55
aa(lp636
I13
aI11
aI59
aI44
aa(lp637
I31
aI36
aI13
aI47
aa(lp638
I17
aI41
aI56
aI13
aa(lp639
I54
aI8
aI40
aI25
aa(lp640
I11
aI17
aI17
aI82
aa(lp641
I17
aI55
aI21
aI34
aa(lp642
I48
aI5
aI56
aI18
aa(lp643
I41
aI24
aI13
aI49
aa(lp644
I21
aI18
aI12
aI76
aa(lp645
I33
aI19
aI26
aI49
aa(lp646
I23
aI79
aI13
aI12
aa(lp647
I8
aI33
aI51
aI35
aa(lp648
I29
aI45
aI11
aI42
aa(lp649
I27
aI27
aI47
aI26
aa(lp650
I51
aI23
aI34
aI19
aa(lp651
I32
aI9
aI23
aI63
aa(lp652
I15
aI40
aI50
aI22
aa(lp653
I39
aI8
aI54
aI26
aa(lp654
I6
aI65
aI39
aI17
aa(lp655
I63
aI26
aI23
aI15
aa(lp656
I1
aI123
aI3
aI0
aa(lp657
I15
aI28
aI21
aI63
aa(lp658
I32
aI28
aI24
aI43
aa(lp659
I19
aI65
aI23
aI20
aa(lp660
I26
aI54
aI42
aI5
aa(lp661
I0
aI0
aI127
aI0
aa(lp662
I21
aI0
aI3
aI103
aa(lp663
I30
aI27
aI48
aI22
aa(lp664
I6
aI25
aI45
aI51
aa(lp665
I17
aI27
aI47
aI36
aa(lp666
I50
aI41
aI14
aI22
aa(lp667
I2
aI35
aI90
aI0
aa(lp668
I30
aI24
aI27
aI46
aa(lp669
I23
aI24
aI46
aI34
aa(lp670
I22
aI25
aI25
aI55
aa(lp671
I52
aI61
aI6
aI8
aa(lp672
I44
aI30
aI27
aI26
aa(lp673
I15
aI19
aI35
aI58
aa(lp674
I20
aI43
aI52
aI12
aa(lp675
I26
aI32
aI45
aI24
aa(lp676
I52
aI14
aI15
aI46
aa(lp677
I43
aI41
aI24
aI19
aa(lp678
I34
aI29
aI16
aI48
aa(lp679
I38
aI39
aI5
aI45
aa(lp680
I44
aI48
aI29
aI6
aa(lp681
I46
aI38
aI11
aI32
aa(lp682
I48
aI14
aI45
aI20
aa(lp683
I27
aI22
aI9
aI69
aa(lp684
I39
aI39
aI36
aI13
aa(lp685
I58
aI7
aI21
aI41
aa(lp686
I31
aI52
aI3
aI41
aa(lp687
I42
aI34
aI20
aI31
aa(lp688
I9
aI27
aI29
aI62
aa(lp689
I42
aI18
aI16
aI51
aa(lp690
I31
aI31
aI37
aI28
aa(lp691
I1
aI16
aI106
aI4
aa(lp692
I17
aI15
aI58
aI37
aa(lp693
I19
aI24
aI21
aI63
aa(lp694
I13
aI31
aI35
aI48
aa(lp695
I25
aI44
aI29
aI29
aa(lp696
I29
aI40
aI25
aI33
aa(lp697
I25
aI30
aI36
aI36
aa(lp698
I16
aI34
aI58
aI19
aa(lp699
I27
aI27
aI31
aI42
aa(lp700
I10
aI29
aI50
aI38
aa(lp701
I12
aI11
aI55
aI49
aa(lp702
I36
aI44
aI18
aI29
aa(lp703
I32
aI49
aI30
aI16
aa(lp704
I23
aI18
aI18
aI68
aa(lp705
I69
aI5
aI52
aI1
aa(lp706
I27
aI42
aI56
aI2
aa(lp707
I27
aI8
aI32
aI60
aa(lp708
I26
aI21
aI20
aI60
aa(lp709
I48
aI22
aI28
aI29
aaa(lp710
(lp711
I21
aI8
aI66
aI9
aa(lp712
I31
aI31
aI31
aI11
aa(lp713
I10
aI15
aI78
aI1
aa(lp714
I16
aI25
aI40
aI23
aa(lp715
I16
aI10
aI47
aI31
aa(lp716
I8
aI34
aI42
aI20
aa(lp717
I29
aI27
aI43
aI5
aa(lp718
I0
aI21
aI0
aI83
aa(lp719
I30
aI6
aI18
aI50
aa(lp720
I35
aI14
aI33
aI22
aa(lp721
I18
aI7
aI75
aI4
aa(lp722
I5
aI17
aI43
aI39
aa(lp723
I27
aI12
aI10
aI55
aa(lp724
I8
aI30
aI16
aI50
aa(lp725
I49
aI14
aI10
aI31
aa(lp726
I35
aI29
aI12
aI28
aa(lp727
I12
aI20
aI49
aI23
aa(lp728
I15
aI25
aI41
aI23
aa(lp729
I17
aI14
aI29
aI44
aa(lp730
I23
aI20
aI36
aI25
aa(lp731
I21
aI38
aI15
aI30
aa(lp732
I16
aI26
aI8
aI54
aa(lp733
I16
aI25
aI13
aI50
aa(lp734
I29
aI39
aI10
aI26
aa(lp735
I14
aI63
aI4
aI23
aa(lp736
I53
aI7
aI9
aI35
aa(lp737
I11
aI11
aI35
aI47
aa(lp738
I31
aI33
aI16
aI24
aa(lp739
I21
aI28
aI44
aI11
aa(lp740
I0
aI0
aI104
aI0
aa(lp741
I11
aI9
aI21
aI63
aa(lp742
I9
aI44
aI14
aI37
aa(lp743
I41
aI5
aI41
aI17
aa(lp744
I37
aI16
aI8
aI43
aa(lp745
I17
aI13
aI26
aI48
aa(lp746
I20
aI11
aI26
aI47
aa(lp747
I23
aI54
aI16
aI11
aa(lp748
I0
aI45
aI2
aI57
aa(lp749
I8
aI19
aI17
aI60
aa(lp750
I21
aI19
aI46
aI18
aa(lp751
I41
aI21
aI28
aI14
aa(lp752
I29
aI10
aI21
aI44
aa(lp753
I20
aI37
aI29
aI18
aa(lp754
I33
aI7
aI41
aI23
aa(lp755
I5
aI52
aI31
aI16
aa(lp756
I38
aI25
aI23
aI18
aa(lp757
I51
aI17
aI13
aI23
aa(lp758
I16
aI30
aI12
aI46
aa(lp759
I18
aI22
aI21
aI43
aa(lp760
I13
aI51
aI14
aI26
aa(lp761
I24
aI45
aI33
aI2
aa(lp762
I3
aI16
aI42
aI43
aa(lp763
I5
aI31
aI31
aI37
aa(lp764
I24
aI21
aI41
aI18
aa(lp765
I14
aI22
aI28
aI40
aa(lp766
I21
aI17
aI43
aI23
aa(lp767
I43
aI31
aI9
aI21
aa(lp768
I18
aI64
aI8
aI14
aa(lp769
I32
aI26
aI19
aI27
aa(lp770
I20
aI17
aI42
aI25
aa(lp771
I13
aI17
aI19
aI55
aa(lp772
I42
aI49
aI3
aI10
aa(lp773
I28
aI27
aI26
aI23
aa(lp774
I23
aI10
aI24
aI47
aa(lp775
I24
aI34
aI31
aI15
aa(lp776
I21
aI26
aI38
aI19
aa(lp777
I31
aI18
aI11
aI44
aa(lp778
I31
aI30
aI23
aI20
aa(lp779
I32
aI37
aI11
aI24
aa(lp780
I47
aI23
aI3
aI31
aa(lp781
I29
aI53
aI19
aI3
aa(lp782
I43
aI24
aI12
aI25
aa(lp783
I44
aI9
aI28
aI23
aa(lp784
I19
aI11
aI17
aI57
aa(lp785
I37
aI31
aI29
aI7
aa(lp786
I43
aI5
aI21
aI35
aa(lp787
I22
aI42
aI11
aI29
aa(lp788
I35
aI29
aI11
aI29
aa(lp789
I9
aI21
aI24
aI50
aa(lp790
I35
aI17
aI11
aI41
aa(lp791
I28
aI22
aI36
aI18
aa(lp792
I19
aI16
aI51
aI18
aa(lp793
I19
aI29
aI23
aI33
aa(lp794
I9
aI9
aI13
aI73
aa(lp795
I6
aI36
aI33
aI29
aa(lp796
I44
aI5
aI12
aI43
aa(lp797
I15
aI35
aI27
aI27
aa(lp798
I18
aI29
aI37
aI20
aa(lp799
I12
aI27
aI45
aI20
aa(lp800
I23
aI20
aI23
aI38
aa(lp801
I0
aI2
aI1
aI101
aa(lp802
I11
aI12
aI37
aI44
aa(lp803
I37
aI33
aI16
aI18
aa(lp804
I31
aI28
aI32
aI13
aa(lp805
I17
aI15
aI21
aI51
aa(lp806
I26
aI51
aI27
aI0
aa(lp807
I22
aI38
aI44
aI0
aa(lp808
I0
aI29
aI74
aI1
aa(lp809
I18
aI27
aI18
aI41
aa(lp810
I42
aI26
aI21
aI15
aaa(lp811
(lp812
I20
aI10
aI55
aI10
aa(lp813
I30
aI33
aI23
aI9
aa(lp814
I17
aI33
aI25
aI20
aa(lp815
I24
aI17
aI35
aI19
aa(lp816
I17
aI9
aI46
aI23
aa(lp817
I2
aI32
aI45
aI16
aa(lp818
I27
aI21
aI41
aI6
aa(lp819
I1
aI0
aI94
aI0
aa(lp820
I32
aI52
aI10
aI1
aa(lp821
I32
aI15
aI26
aI22
aa(lp822
I24
aI3
aI65
aI3
aa(lp823
I6
aI21
aI33
aI35
aa(lp824
I25
aI10
aI14
aI46
aa(lp825
I52
aI22
aI0
aI21
aa(lp826
I39
aI12
aI11
aI33
aa(lp827
I19
aI27
aI20
aI29
aa(lp828
I16
aI16
aI42
aI21
aa(lp829
I12
aI26
aI38
aI19
aa(lp830
I22
aI10
aI16
aI47
aa(lp831
I21
aI15
aI28
aI31
aa(lp832
I25
aI25
aI15
aI30
aa(lp833
I14
aI28
aI7
aI46
aa(lp834
I0
aI6
aI79
aI10
aa(lp835
I24
aI35
aI9
aI27
aa(lp836
I7
aI65
aI2
aI21
aa(lp837
I42
aI3
aI10
aI40
aa(lp838
I10
aI11
aI39
aI35
aa(lp839
I22
aI32
aI15
aI26
aa(lp840
I11
aI26
aI48
aI10
aa(lp841
I31
aI6
aI25
aI33
aa(lp842
I15
aI12
aI13
aI55
aa(lp843
I12
aI48
aI6
aI29
aa(lp844
I35
aI6
aI39
aI15
aa(lp845
I30
aI20
aI10
aI35
aa(lp846
I15
aI14
aI20
aI46
aa(lp847
I26
aI12
aI18
aI39
aa(lp848
I18
aI57
aI12
aI8
aa(lp849
I27
aI68
aI0
aI0
aa(lp850
I11
aI25
aI17
aI42
aa(lp851
I15
aI15
aI40
aI25
aa(lp852
I38
aI15
aI30
aI12
aa(lp853
I23
aI3
aI12
aI57
aa(lp854
I14
aI33
aI27
aI21
aa(lp855
I23
aI6
aI34
aI32
aa(lp856
I13
aI23
aI13
aI46
aa(lp857
I26
aI20
aI30
aI19
aa(lp858
I38
aI18
aI27
aI12
aa(lp859
I20
aI20
aI12
aI43
aa(lp860
I19
aI13
aI21
aI42
aa(lp861
I14
aI43
aI15
aI23
aa(lp862
I23
aI39
aI31
aI2
aa(lp863
I5
aI22
aI24
aI44
aa(lp864
I13
aI37
aI23
aI22
aa(lp865
I16
aI15
aI43
aI21
aa(lp866
I9
aI20
aI26
aI40
aa(lp867
I19
aI18
aI37
aI21
aa(lp868
I32
aI29
aI7
aI27
aa(lp869
I10
aI61
aI2
aI22
aa(lp870
I26
aI24
aI15
aI30
aa(lp871
I19
aI18
aI45
aI13
aa(lp872
I0
aI1
aI0
aI94
aa(lp873
I36
aI47
aI1
aI11
aa(lp874
I30
aI27
aI14
aI24
aa(lp875
I19
aI6
aI30
aI40
aa(lp876
I39
aI11
aI45
aI0
aa(lp877
I23
aI18
aI24
aI30
aa(lp878
I36
aI12
aI10
aI37
aa(lp879
I24
aI27
aI25
aI19
aa(lp880
I32
aI21
aI15
aI27
aa(lp881
I40
aI25
aI3
aI27
aa(lp882
I33
aI34
aI24
aI4
aa(lp883
I38
aI17
aI7
aI33
aa(lp884
I37
aI15
aI28
aI15
aa(lp885
I18
aI8
aI11
aI58
aa(lp886
I28
aI30
aI31
aI6
aa(lp887
I34
aI8
aI16
aI37
aa(lp888
I20
aI46
aI6
aI23
aa(lp889
I27
aI23
aI14
aI31
aa(lp890
I9
aI21
aI25
aI40
aa(lp891
I33
aI12
aI17
aI33
aa(lp892
I14
aI26
aI29
aI26
aa(lp893
I10
aI21
aI39
aI25
aa(lp894
I24
aI34
aI13
aI24
aa(lp895
I12
aI7
aI17
aI59
aa(lp896
I6
aI15
aI67
aI7
aa(lp897
I27
aI27
aI23
aI18
aa(lp898
I19
aI31
aI25
aI20
aa(lp899
I11
aI26
aI34
aI24
aa(lp900
I17
aI16
aI44
aI18
aa(lp901
I19
aI23
aI23
aI30
aa(lp902
I9
aI21
aI41
aI24
aa(lp903
I12
aI13
aI27
aI43
aa(lp904
I25
aI36
aI10
aI24
aa(lp905
I79
aI16
aI0
aI0
aa(lp906
I23
aI17
aI13
aI42
aa(lp907
I42
aI14
aI33
aI6
aa(lp908
I19
aI35
aI41
aI0
aa(lp909
I19
aI5
aI29
aI42
aa(lp910
I15
aI26
aI12
aI42
aa(lp911
I33
aI49
aI13
aI0
aaa(lp912
(lp913
I7
aI7
aI41
aI9
aa(lp914
I31
aI20
aI8
aI5
aa(lp915
I13
aI20
aI12
aI19
aa(lp916
I15
aI12
aI20
aI17
aa(lp917
I7
aI1
aI32
aI24
aa(lp918
I1
aI33
aI16
aI14
aa(lp919
I13
aI28
aI18
aI5
aa(lp920
I13
aI21
aI16
aI14
aa(lp921
I31
aI26
aI7
aI0
aa(lp922
I29
aI11
aI15
aI9
aa(lp923
I12
aI4
aI44
aI4
aa(lp924
I8
aI9
aI23
aI24
aa(lp925
I17
aI16
aI6
aI25
aa(lp926
I12
aI10
aI11
aI31
aa(lp927
I63
aI1
aI0
aI0
aa(lp928
I16
aI16
aI4
aI28
aa(lp929
I2
aI19
aI25
aI18
aa(lp930
I10
aI13
aI29
aI12
aa(lp931
I16
aI3
aI12
aI33
aa(lp932
I9
aI9
aI28
aI18
aa(lp933
I19
aI23
aI4
aI18
aa(lp934
I9
aI18
aI1
aI36
aa(lp935
I13
aI11
aI12
aI28
aa(lp936
I17
aI19
aI12
aI16
aa(lp937
I4
aI47
aI0
aI13
aa(lp938
I24
aI3
aI6
aI31
aa(lp939
I5
aI5
aI33
aI21
aa(lp940
I17
aI20
aI4
aI23
aa(lp941
I10
aI23
aI26
aI5
aa(lp942
I21
aI8
aI27
aI8
aa(lp943
I9
aI9
aI8
aI38
aa(lp944
I5
aI31
aI10
aI18
aa(lp945
I17
aI1
aI36
aI10
aa(lp946
I19
aI10
aI9
aI26
aa(lp947
I7
aI14
aI9
aI34
aa(lp948
I11
aI7
aI9
aI37
aa(lp949
I16
aI32
aI7
aI9
aa(lp950
I8
aI12
aI18
aI26
aa(lp951
I0
aI30
aI12
aI22
aa(lp952
I8
aI16
aI28
aI12
aa(lp953
I27
aI15
aI14
aI8
aa(lp954
I19
aI5
aI8
aI32
aa(lp955
I10
aI27
aI16
aI11
aa(lp956
I18
aI3
aI28
aI15
aa(lp957
I0
aI1
aI8
aI55
aa(lp958
I27
aI13
aI12
aI12
aa(lp959
I27
aI13
aI10
aI14
aa(lp960
I15
aI12
aI7
aI30
aa(lp961
I12
aI14
aI15
aI23
aa(lp962
I9
aI37
aI12
aI6
aa(lp963
I13
aI30
aI18
aI3
aa(lp964
I9
aI6
aI26
aI23
aa(lp965
I8
aI22
aI15
aI19
aa(lp966
I11
aI11
aI32
aI10
aa(lp967
I3
aI10
aI14
aI37
aa(lp968
I17
aI18
aI14
aI15
aa(lp969
I21
aI22
aI3
aI18
aa(lp970
I2
aI46
aI15
aI1
aa(lp971
I20
aI18
aI14
aI12
aa(lp972
I11
aI15
aI25
aI13
aa(lp973
I11
aI11
aI17
aI25
aa(lp974
I28
aI27
aI2
aI7
aa(lp975
I19
aI14
aI16
aI15
aa(lp976
I13
aI8
aI17
aI26
aa(lp977
I9
aI15
aI31
aI9
aa(lp978
I64
aI0
aI0
aI0
aa(lp979
I23
aI8
aI5
aI28
aa(lp980
I22
aI21
aI10
aI11
aa(lp981
I22
aI19
aI7
aI16
aa(lp982
I10
aI3
aI51
aI0
aa(lp983
I16
aI34
aI14
aI0
aa(lp984
I1
aI0
aI55
aI8
aa(lp985
I22
aI4
aI24
aI14
aa(lp986
I15
aI13
aI10
aI26
aa(lp987
I14
aI17
aI29
aI4
aa(lp988
I18
aI5
aI11
aI30
aa(lp989
I15
aI29
aI2
aI18
aa(lp990
I30
aI13
aI5
aI16
aa(lp991
I5
aI12
aI19
aI28
aa(lp992
I21
aI16
aI9
aI18
aa(lp993
I6
aI27
aI9
aI22
aa(lp994
I0
aI64
aI0
aI0
aa(lp995
I14
aI26
aI12
aI12
aa(lp996
I8
aI11
aI12
aI33
aa(lp997
I7
aI19
aI15
aI23
aa(lp998
I16
aI25
aI12
aI11
aa(lp999
I9
aI16
aI18
aI21
aa(lp1000
I11
aI18
aI15
aI20
aa(lp1001
I8
aI20
aI25
aI11
aa(lp1002
I17
aI9
aI14
aI24
aa(lp1003
I3
aI14
aI29
aI18
aa(lp1004
I0
aI0
aI64
aI0
aa(lp1005
I14
aI24
aI10
aI16
aa(lp1006
I12
aI24
aI21
aI7
aa(lp1007
I14
aI13
aI12
aI25
aa(lp1008
I22
aI11
aI26
aI5
aa(lp1009
I15
aI21
aI26
aI2
aa(lp1010
I10
aI3
aI14
aI37
aa(lp1011
I13
aI21
aI9
aI21
aa(lp1012
I26
aI13
aI14
aI11
aaasS'posCount'
p1013
(lp1014
I19
aI18
aI18
aI20
aI14
aI24
aI24
aI22
aI17
aI21
asS'features'
p1015
I100
sS'tu'
p1016
I0
sS'pos'
p1017
(lp1018
(lp1019
I3
aI8
aI10
aI12
aI14
aI21
aI27
aI43
aI46
aI52
aI53
aI63
aI65
aI66
aI71
aI72
aI77
aI82
aI89
aa(lp1020
I1
aI13
aI14
aI19
aI24
aI27
aI33
aI36
aI47
aI53
aI64
aI69
aI72
aI75
aI79
aI84
aI90
aI93
aa(lp1021
I6
aI14
aI16
aI23
aI25
aI28
aI32
aI44
aI48
aI54
aI56
aI59
aI66
aI81
aI82
aI93
aI94
aI98
aa(lp1022
I3
aI8
aI12
aI17
aI22
aI23
aI36
aI41
aI42
aI45
aI49
aI50
aI56
aI68
aI78
aI81
aI82
aI90
aI92
aI97
aa(lp1023
I4
aI27
aI30
aI58
aI60
aI63
aI65
aI67
aI78
aI79
aI81
aI87
aI91
aI93
aa(lp1024
I1
aI6
aI8
aI17
aI21
aI22
aI26
aI27
aI28
aI29
aI30
aI31
aI42
aI48
aI58
aI60
aI71
aI74
aI75
aI76
aI77
aI80
aI85
aI86
aa(lp1025
I0
aI1
aI8
aI15
aI17
aI18
aI19
aI20
aI38
aI46
aI51
aI52
aI54
aI57
aI58
aI66
aI68
aI69
aI71
aI81
aI82
aI83
aI95
aI98
aa(lp1026
I2
aI7
aI8
aI13
aI15
aI26
aI29
aI34
aI37
aI38
aI46
aI52
aI57
aI64
aI73
aI76
aI84
aI85
aI90
aI93
aI95
aI97
aa(lp1027
I7
aI10
aI13
aI22
aI29
aI31
aI37
aI41
aI44
aI45
aI60
aI64
aI65
aI73
aI84
aI93
aI99
aa(lp1028
I1
aI4
aI5
aI14
aI15
aI16
aI29
aI38
aI44
aI49
aI51
aI54
aI55
aI57
aI65
aI69
aI71
aI77
aI80
aI81
aI91
aasS'n'
p1029
I1000
sS'featureValues'
p1030
I4
sS'fnoise'
p1031
(lp1032
I873
aI503
aI896
aI793
aI872
aI936
aI920
aI801
aI515
aI1000
aI846
aI1000
aI793
aI542
aI585
aI705
aI903
aI678
aI873
aI614
aI873
aI894
aI710
aI819
aI741
aI967
aI849
aI571
aI920
aI690
aI889
aI858
aI967
aI741
aI896
aI1000
aI593
aI801
aI705
aI1000
aI1000
aI757
aI805
aI941
aI808
aI757
aI710
aI741
aI920
aI788
aI852
aI809
aI710
aI682
aI776
aI936
aI819
aI705
aI762
aI967
aI794
aI1000
aI1000
aI877
aI542
aI718
aI781
aI936
aI725
aI550
aI1000
aI703
aI682
aI801
aI953
aI694
aI849
aI830
aI788
aI677
aI889
aI564
aI633
aI873
aI542
aI849
aI953
aI936
aI1000
aI941
aI489
aI872
aI852
aI445
aI967
aI769
aI1000
aI748
aI840
aI905
asS't'
p1033
(lp1034
I59
aI259
aI33
aI148
aI64
aI47
aI127
aI104
aI95
aI64
asS'alpha'
p1035
F1.0
sS'lambda'
p1036
F3.0
sS'arch'
p1037
I10
sS'fvNoise'
p1038
(lp1039
(lp1040
I174
aI89
aI513
aI97
aa(lp1041
I159
aI166
aI126
aI52
aa(lp1042
I193
aI289
aI201
aI213
aa(lp1043
I180
aI172
aI259
aI182
aa(lp1044
I162
aI75
aI381
aI254
aa(lp1045
I45
aI353
aI359
aI179
aa(lp1046
I241
aI290
aI327
aI62
aa(lp1047
I152
aI242
aI139
aI268
aa(lp1048
I192
aI250
aI64
aI9
aa(lp1049
I356
aI145
aI292
aI207
aa(lp1050
I147
aI60
aI584
aI55
aa(lp1051
I90
aI186
aI370
aI354
aa(lp1052
I221
aI118
aI90
aI364
aa(lp1053
I89
aI92
aI123
aI238
aa(lp1054
I275
aI76
aI67
aI167
aa(lp1055
I156
aI192
aI127
aI230
aa(lp1056
I136
aI188
aI366
aI213
aa(lp1057
I91
aI148
aI318
aI121
aa(lp1058
I185
aI83
aI194
aI411
aa(lp1059
I140
aI112
aI207
aI155
aa(lp1060
I192
aI298
aI128
aI255
aa(lp1061
I137
aI258
aI60
aI439
aa(lp1062
I106
aI146
aI90
aI368
aa(lp1063
I250
aI313
aI91
aI165
aa(lp1064
I83
aI485
aI14
aI159
aa(lp1065
I421
aI44
aI95
aI407
aa(lp1066
I82
aI95
aI391
aI281
aa(lp1067
I147
aI182
aI73
aI169
aa(lp1068
I140
aI275
aI406
aI99
aa(lp1069
I279
aI74
aI196
aI141
aa(lp1070
I126
aI98
aI124
aI541
aa(lp1071
I80
aI395
aI131
aI252
aa(lp1072
I334
aI49
aI431
aI153
aa(lp1073
I247
aI124
aI86
aI284
aa(lp1074
I149
aI159
aI126
aI462
aa(lp1075
I249
aI118
aI189
aI444
aa(lp1076
I115
aI353
aI62
aI63
aa(lp1077
I61
aI195
aI289
aI256
aa(lp1078
I93
aI192
aI97
aI323
aa(lp1079
I189
aI181
aI409
aI221
aa(lp1080
I402
aI198
aI246
aI154
aa(lp1081
I207
aI51
aI142
aI357
aa(lp1082
I121
aI256
aI276
aI152
aa(lp1083
I259
aI46
aI381
aI255
aa(lp1084
I49
aI410
aI227
aI122
aa(lp1085
I323
aI170
aI156
aI108
aa(lp1086
I312
aI127
aI166
aI105
aa(lp1087
I123
aI179
aI93
aI346
aa(lp1088
I193
aI171
aI201
aI355
aa(lp1089
I124
aI379
aI121
aI164
aa(lp1090
I206
aI375
aI252
aI19
aa(lp1091
I39
aI136
aI244
aI390
aa(lp1092
I92
aI245
aI166
aI207
aa(lp1093
I124
aI142
aI298
aI118
aa(lp1094
I81
aI170
aI226
aI299
aa(lp1095
I131
aI212
aI364
aI229
aa(lp1096
I310
aI268
aI75
aI166
aa(lp1097
I77
aI436
aI27
aI165
aa(lp1098
I236
aI171
aI152
aI203
aa(lp1099
I186
aI168
aI412
aI201
aa(lp1100
I128
aI162
aI156
aI348
aa(lp1101
I410
aI488
aI33
aI69
aa(lp1102
I292
aI243
aI207
aI258
aa(lp1103
I152
aI104
aI246
aI375
aa(lp1104
I101
aI168
aI228
aI45
aa(lp1105
I133
aI158
aI253
aI174
aa(lp1106
I281
aI129
aI56
aI315
aa(lp1107
I280
aI311
aI178
aI167
aa(lp1108
I224
aI213
aI99
aI189
aa(lp1109
I229
aI149
aI20
aI152
aa(lp1110
I331
aI427
aI208
aI34
aa(lp1111
I310
aI139
aI68
aI186
aa(lp1112
I256
aI74
aI218
aI134
aa(lp1113
I198
aI131
aI94
aI378
aa(lp1114
I303
aI284
aI307
aI59
aa(lp1115
I284
aI45
aI122
aI243
aa(lp1116
I180
aI399
aI37
aI233
aa(lp1117
I258
aI240
aI108
aI224
aa(lp1118
I57
aI166
aI207
aI358
aa(lp1119
I220
aI104
aI91
aI262
aa(lp1120
I191
aI199
aI282
aI217
aa(lp1121
I87
aI119
aI246
aI112
aa(lp1122
I151
aI189
aI121
aI172
aa(lp1123
I83
aI116
aI134
aI540
aa(lp1124
I68
aI146
aI122
aI206
aa(lp1125
I213
aI275
aI179
aI182
aa(lp1126
I175
aI292
aI240
aI246
aa(lp1127
I150
aI226
aI297
aI263
aa(lp1128
I133
aI253
aI415
aI199
aa(lp1129
I187
aI211
aI210
aI333
aa(lp1130
I42
aI112
aI205
aI130
aa(lp1131
I104
aI90
aI309
aI369
aa(lp1132
I228
aI308
aI125
aI191
aa(lp1133
I94
aI175
aI120
aI56
aa(lp1134
I186
aI145
aI173
aI463
aa(lp1135
I289
aI146
aI280
aI54
aa(lp1136
I218
aI360
aI414
aI8
aa(lp1137
I133
aI49
aI217
aI349
aa(lp1138
I170
aI222
aI137
aI311
aa(lp1139
I350
aI190
aI186
aI179
aas.