(dp0
S'count'
p1
(lp2
(lp3
(lp4
I12
aI4
aI35
aI8
aa(lp5
I19
aI15
aI19
aI6
aa(lp6
I14
aI20
aI15
aI10
aa(lp7
I19
aI12
aI10
aI18
aa(lp8
I14
aI3
aI27
aI15
aa(lp9
I1
aI24
aI17
aI17
aa(lp10
I13
aI22
aI17
aI7
aa(lp11
I9
aI20
aI11
aI19
aa(lp12
I0
aI20
aI37
aI2
aa(lp13
I26
aI8
aI16
aI9
aa(lp14
I0
aI38
aI0
aI21
aa(lp15
I9
aI12
aI22
aI16
aa(lp16
I15
aI1
aI43
aI0
aa(lp17
I11
aI12
aI14
aI22
aa(lp18
I0
aI4
aI55
aI0
aa(lp19
I16
aI16
aI8
aI19
aa(lp20
I9
aI12
aI18
aI20
aa(lp21
I8
aI12
aI30
aI9
aa(lp22
I11
aI6
aI12
aI30
aa(lp23
I13
aI12
aI22
aI12
aa(lp24
I10
aI22
aI7
aI20
aa(lp25
I0
aI57
aI2
aI0
aa(lp26
I10
aI11
aI6
aI32
aa(lp27
I19
aI27
aI4
aI9
aa(lp28
I9
aI35
aI0
aI15
aa(lp29
I26
aI3
aI8
aI22
aa(lp30
I8
aI6
aI22
aI23
aa(lp31
I17
aI26
aI3
aI13
aa(lp32
I7
aI23
aI24
aI5
aa(lp33
I26
aI7
aI11
aI15
aa(lp34
I9
aI7
aI6
aI37
aa(lp35
I6
aI30
aI8
aI15
aa(lp36
I23
aI5
aI24
aI7
aa(lp37
I18
aI12
aI10
aI19
aa(lp38
I7
aI17
aI9
aI26
aa(lp39
I12
aI6
aI12
aI29
aa(lp40
I9
aI37
aI6
aI7
aa(lp41
I7
aI11
aI21
aI20
aa(lp42
I9
aI16
aI8
aI26
aa(lp43
I11
aI11
aI25
aI12
aa(lp44
I25
aI8
aI14
aI12
aa(lp45
I19
aI3
aI10
aI27
aa(lp46
I9
aI18
aI25
aI7
aa(lp47
I25
aI0
aI18
aI16
aa(lp48
I4
aI31
aI18
aI6
aa(lp49
I21
aI18
aI12
aI8
aa(lp50
I0
aI0
aI0
aI59
aa(lp51
I10
aI16
aI9
aI24
aa(lp52
I12
aI15
aI11
aI21
aa(lp53
I8
aI31
aI10
aI10
aa(lp54
I15
aI27
aI16
aI1
aa(lp55
I4
aI10
aI16
aI29
aa(lp56
I2
aI27
aI15
aI15
aa(lp57
I5
aI9
aI27
aI18
aa(lp58
I3
aI13
aI14
aI29
aa(lp59
I5
aI12
aI20
aI22
aa(lp60
I18
aI23
aI3
aI15
aa(lp61
I7
aI38
aI3
aI11
aa(lp62
I26
aI10
aI11
aI12
aa(lp63
I11
aI9
aI31
aI8
aa(lp64
I12
aI10
aI9
aI28
aa(lp65
I27
aI27
aI2
aI3
aa(lp66
I15
aI16
aI9
aI19
aa(lp67
I7
aI12
aI11
aI29
aa(lp68
I14
aI21
aI20
aI4
aa(lp69
I5
aI8
aI25
aI21
aa(lp70
I9
aI35
aI11
aI4
aa(lp71
I23
aI21
aI10
aI5
aa(lp72
I18
aI15
aI8
aI18
aa(lp73
I25
aI17
aI1
aI16
aa(lp74
I22
aI24
aI10
aI3
aa(lp75
I53
aI0
aI2
aI4
aa(lp76
I13
aI8
aI26
aI12
aa(lp77
I21
aI7
aI7
aI24
aa(lp78
I22
aI16
aI17
aI4
aa(lp79
I26
aI2
aI11
aI20
aa(lp80
I15
aI28
aI3
aI13
aa(lp81
I17
aI10
aI8
aI24
aa(lp82
I3
aI9
aI22
aI25
aa(lp83
I16
aI9
aI6
aI28
aa(lp84
I10
aI12
aI23
aI14
aa(lp85
I10
aI15
aI26
aI8
aa(lp86
I24
aI15
aI4
aI16
aa(lp87
I6
aI9
aI5
aI39
aa(lp88
I9
aI14
aI13
aI23
aa(lp89
I14
aI20
aI9
aI16
aa(lp90
I8
aI22
aI18
aI11
aa(lp91
I8
aI11
aI26
aI14
aa(lp92
I7
aI14
aI23
aI15
aa(lp93
I56
aI2
aI1
aI0
aa(lp94
I4
aI14
aI26
aI15
aa(lp95
I7
aI5
aI22
aI25
aa(lp96
I13
aI22
aI13
aI11
aa(lp97
I11
aI22
aI19
aI7
aa(lp98
I13
aI7
aI16
aI23
aa(lp99
I27
aI14
aI17
aI1
aa(lp100
I15
aI26
aI18
aI0
aa(lp101
I10
aI1
aI22
aI26
aa(lp102
I13
aI17
aI7
aI22
aa(lp103
I17
aI14
aI17
aI11
aaa(lp104
(lp105
I22
aI8
aI66
aI9
aa(lp106
I31
aI31
aI32
aI11
aa(lp107
I10
aI15
aI79
aI1
aa(lp108
I17
aI25
aI40
aI23
aa(lp109
I16
aI10
aI47
aI32
aa(lp110
I8
aI34
aI43
aI20
aa(lp111
I30
aI27
aI43
aI5
aa(lp112
I0
aI22
aI0
aI83
aa(lp113
I31
aI6
aI18
aI50
aa(lp114
I35
aI14
aI34
aI22
aa(lp115
I18
aI7
aI76
aI4
aa(lp116
I5
aI17
aI43
aI40
aa(lp117
I27
aI12
aI10
aI56
aa(lp118
I8
aI31
aI16
aI50
aa(lp119
I49
aI14
aI10
aI32
aa(lp120
I35
aI29
aI13
aI28
aa(lp121
I13
aI20
aI49
aI23
aa(lp122
I15
aI26
aI41
aI23
aa(lp123
I17
aI14
aI29
aI45
aa(lp124
I23
aI20
aI37
aI25
aa(lp125
I21
aI39
aI15
aI30
aa(lp126
I16
aI26
aI9
aI54
aa(lp127
I16
aI25
aI14
aI50
aa(lp128
I29
aI40
aI10
aI26
aa(lp129
I14
aI64
aI4
aI23
aa(lp130
I54
aI7
aI9
aI35
aa(lp131
I11
aI11
aI36
aI47
aa(lp132
I31
aI33
aI16
aI25
aa(lp133
I21
aI28
aI45
aI11
aa(lp134
I0
aI0
aI105
aI0
aa(lp135
I11
aI9
aI21
aI64
aa(lp136
I9
aI45
aI14
aI37
aa(lp137
I41
aI5
aI42
aI17
aa(lp138
I38
aI16
aI8
aI43
aa(lp139
I17
aI13
aI27
aI48
aa(lp140
I21
aI11
aI26
aI47
aa(lp141
I23
aI55
aI16
aI11
aa(lp142
I0
aI46
aI2
aI57
aa(lp143
I8
aI20
aI17
aI60
aa(lp144
I21
aI19
aI47
aI18
aa(lp145
I42
aI21
aI28
aI14
aa(lp146
I30
aI10
aI21
aI44
aa(lp147
I20
aI38
aI29
aI18
aa(lp148
I33
aI7
aI42
aI23
aa(lp149
I5
aI53
aI31
aI16
aa(lp150
I38
aI25
aI24
aI18
aa(lp151
I51
aI18
aI13
aI23
aa(lp152
I16
aI30
aI12
aI47
aa(lp153
I18
aI22
aI21
aI44
aa(lp154
I13
aI52
aI14
aI26
aa(lp155
I24
aI46
aI33
aI2
aa(lp156
I3
aI16
aI43
aI43
aa(lp157
I5
aI31
aI31
aI38
aa(lp158
I25
aI21
aI41
aI18
aa(lp159
I14
aI22
aI28
aI41
aa(lp160
I21
aI17
aI44
aI23
aa(lp161
I43
aI32
aI9
aI21
aa(lp162
I18
aI65
aI8
aI14
aa(lp163
I32
aI27
aI19
aI27
aa(lp164
I21
aI17
aI42
aI25
aa(lp165
I13
aI18
aI19
aI55
aa(lp166
I42
aI50
aI3
aI10
aa(lp167
I28
aI27
aI26
aI24
aa(lp168
I23
aI10
aI25
aI47
aa(lp169
I24
aI35
aI31
aI15
aa(lp170
I21
aI27
aI38
aI19
aa(lp171
I32
aI18
aI11
aI44
aa(lp172
I31
aI30
aI23
aI21
aa(lp173
I32
aI37
aI11
aI25
aa(lp174
I47
aI24
aI3
aI31
aa(lp175
I29
aI53
aI20
aI3
aa(lp176
I43
aI25
aI12
aI25
aa(lp177
I44
aI9
aI29
aI23
aa(lp178
I19
aI11
aI17
aI58
aa(lp179
I37
aI31
aI30
aI7
aa(lp180
I43
aI5
aI22
aI35
aa(lp181
I22
aI42
aI11
aI30
aa(lp182
I36
aI29
aI11
aI29
aa(lp183
I9
aI21
aI25
aI50
aa(lp184
I36
aI17
aI11
aI41
aa(lp185
I29
aI22
aI36
aI18
aa(lp186
I19
aI16
aI52
aI18
aa(lp187
I20
aI29
aI23
aI33
aa(lp188
I9
aI9
aI13
aI74
aa(lp189
I7
aI36
aI33
aI29
aa(lp190
I44
aI5
aI12
aI44
aa(lp191
I15
aI36
aI27
aI27
aa(lp192
I18
aI29
aI38
aI20
aa(lp193
I12
aI28
aI45
aI20
aa(lp194
I23
aI21
aI23
aI38
aa(lp195
I0
aI3
aI1
aI101
aa(lp196
I11
aI12
aI38
aI44
aa(lp197
I38
aI33
aI16
aI18
aa(lp198
I31
aI29
aI32
aI13
aa(lp199
I17
aI15
aI21
aI52
aa(lp200
I26
aI52
aI27
aI0
aa(lp201
I22
aI38
aI45
aI0
aa(lp202
I0
aI29
aI75
aI1
aa(lp203
I19
aI27
aI18
aI41
aa(lp204
I43
aI26
aI21
aI15
aaa(lp205
(lp206
I7
aI7
aI41
aI9
aa(lp207
I31
aI20
aI8
aI5
aa(lp208
I13
aI20
aI12
aI19
aa(lp209
I15
aI12
aI20
aI17
aa(lp210
I7
aI1
aI32
aI24
aa(lp211
I1
aI33
aI16
aI14
aa(lp212
I13
aI28
aI18
aI5
aa(lp213
I13
aI21
aI16
aI14
aa(lp214
I31
aI26
aI7
aI0
aa(lp215
I29
aI11
aI15
aI9
aa(lp216
I12
aI4
aI44
aI4
aa(lp217
I8
aI9
aI23
aI24
aa(lp218
I17
aI16
aI6
aI25
aa(lp219
I12
aI10
aI11
aI31
aa(lp220
I63
aI1
aI0
aI0
aa(lp221
I16
aI16
aI4
aI28
aa(lp222
I2
aI19
aI25
aI18
aa(lp223
I10
aI13
aI29
aI12
aa(lp224
I16
aI3
aI12
aI33
aa(lp225
I9
aI9
aI28
aI18
aa(lp226
I19
aI23
aI4
aI18
aa(lp227
I9
aI18
aI1
aI36
aa(lp228
I13
aI11
aI12
aI28
aa(lp229
I17
aI19
aI12
aI16
aa(lp230
I4
aI47
aI0
aI13
aa(lp231
I24
aI3
aI6
aI31
aa(lp232
I5
aI5
aI33
aI21
aa(lp233
I17
aI20
aI4
aI23
aa(lp234
I10
aI23
aI26
aI5
aa(lp235
I21
aI8
aI27
aI8
aa(lp236
I9
aI9
aI8
aI38
aa(lp237
I5
aI31
aI10
aI18
aa(lp238
I17
aI1
aI36
aI10
aa(lp239
I19
aI10
aI9
aI26
aa(lp240
I7
aI14
aI9
aI34
aa(lp241
I11
aI7
aI9
aI37
aa(lp242
I16
aI32
aI7
aI9
aa(lp243
I8
aI12
aI18
aI26
aa(lp244
I0
aI30
aI12
aI22
aa(lp245
I8
aI16
aI28
aI12
aa(lp246
I27
aI15
aI14
aI8
aa(lp247
I19
aI5
aI8
aI32
aa(lp248
I10
aI27
aI16
aI11
aa(lp249
I18
aI3
aI28
aI15
aa(lp250
I0
aI1
aI8
aI55
aa(lp251
I27
aI13
aI12
aI12
aa(lp252
I27
aI13
aI10
aI14
aa(lp253
I15
aI12
aI7
aI30
aa(lp254
I12
aI14
aI15
aI23
aa(lp255
I9
aI37
aI12
aI6
aa(lp256
I13
aI30
aI18
aI3
aa(lp257
I9
aI6
aI26
aI23
aa(lp258
I8
aI22
aI15
aI19
aa(lp259
I11
aI11
aI32
aI10
aa(lp260
I3
aI10
aI14
aI37
aa(lp261
I17
aI18
aI14
aI15
aa(lp262
I21
aI22
aI3
aI18
aa(lp263
I2
aI46
aI15
aI1
aa(lp264
I20
aI18
aI14
aI12
aa(lp265
I11
aI15
aI25
aI13
aa(lp266
I11
aI11
aI17
aI25
aa(lp267
I28
aI27
aI2
aI7
aa(lp268
I19
aI14
aI16
aI15
aa(lp269
I13
aI8
aI17
aI26
aa(lp270
I9
aI15
aI31
aI9
aa(lp271
I64
aI0
aI0
aI0
aa(lp272
I23
aI8
aI5
aI28
aa(lp273
I22
aI21
aI10
aI11
aa(lp274
I22
aI19
aI7
aI16
aa(lp275
I10
aI3
aI51
aI0
aa(lp276
I16
aI34
aI14
aI0
aa(lp277
I1
aI0
aI55
aI8
aa(lp278
I22
aI4
aI24
aI14
aa(lp279
I15
aI13
aI10
aI26
aa(lp280
I14
aI17
aI29
aI4
aa(lp281
I18
aI5
aI11
aI30
aa(lp282
I15
aI29
aI2
aI18
aa(lp283
I30
aI13
aI5
aI16
aa(lp284
I5
aI12
aI19
aI28
aa(lp285
I21
aI16
aI9
aI18
aa(lp286
I6
aI27
aI9
aI22
aa(lp287
I0
aI64
aI0
aI0
aa(lp288
I14
aI26
aI12
aI12
aa(lp289
I8
aI11
aI12
aI33
aa(lp290
I7
aI19
aI15
aI23
aa(lp291
I16
aI25
aI12
aI11
aa(lp292
I9
aI16
aI18
aI21
aa(lp293
I11
aI18
aI15
aI20
aa(lp294
I8
aI20
aI25
aI11
aa(lp295
I17
aI9
aI14
aI24
aa(lp296
I3
aI14
aI29
aI18
aa(lp297
I0
aI0
aI64
aI0
aa(lp298
I14
aI24
aI10
aI16
aa(lp299
I12
aI24
aI21
aI7
aa(lp300
I14
aI13
aI12
aI25
aa(lp301
I22
aI11
aI26
aI5
aa(lp302
I15
aI21
aI26
aI2
aa(lp303
I10
aI3
aI14
aI37
aa(lp304
I13
aI21
aI9
aI21
aa(lp305
I26
aI13
aI14
aI11
aaa(lp306
(lp307
I11
aI5
aI22
aI8
aa(lp308
I32
aI4
aI10
aI0
aa(lp309
I6
aI18
aI8
aI14
aa(lp310
I13
aI6
aI18
aI9
aa(lp311
I4
aI4
aI23
aI15
aa(lp312
I1
aI21
aI16
aI8
aa(lp313
I8
aI0
aI0
aI38
aa(lp314
I14
aI13
aI7
aI12
aa(lp315
I31
aI0
aI7
aI8
aa(lp316
I16
aI5
aI15
aI10
aa(lp317
I6
aI4
aI35
aI1
aa(lp318
I6
aI7
aI17
aI16
aa(lp319
I18
aI6
aI3
aI19
aa(lp320
I5
aI9
aI13
aI19
aa(lp321
I26
aI5
aI3
aI12
aa(lp322
I9
aI14
aI8
aI15
aa(lp323
I8
aI11
aI20
aI7
aa(lp324
I8
aI0
aI38
aI0
aa(lp325
I9
aI6
aI14
aI17
aa(lp326
I14
aI11
aI11
aI10
aa(lp327
I12
aI14
aI8
aI12
aa(lp328
I32
aI14
aI0
aI0
aa(lp329
I3
aI15
aI8
aI20
aa(lp330
I14
aI20
aI5
aI7
aa(lp331
I4
aI32
aI1
aI9
aa(lp332
I24
aI2
aI3
aI17
aa(lp333
I2
aI2
aI31
aI11
aa(lp334
I5
aI22
aI6
aI13
aa(lp335
I14
aI14
aI17
aI1
aa(lp336
I11
aI6
aI15
aI14
aa(lp337
I11
aI0
aI4
aI31
aa(lp338
I8
aI25
aI7
aI6
aa(lp339
I16
aI3
aI21
aI6
aa(lp340
I19
aI8
aI4
aI15
aa(lp341
I6
aI9
aI5
aI26
aa(lp342
I14
aI7
aI6
aI19
aa(lp343
I10
aI29
aI3
aI4
aa(lp344
I5
aI12
aI15
aI14
aa(lp345
I8
aI13
aI9
aI16
aa(lp346
I10
aI5
aI17
aI14
aa(lp347
I21
aI11
aI9
aI5
aa(lp348
I10
aI3
aI10
aI23
aa(lp349
I8
aI17
aI8
aI13
aa(lp350
I17
aI1
aI19
aI9
aa(lp351
I2
aI18
aI19
aI7
aa(lp352
I19
aI15
aI7
aI5
aa(lp353
I20
aI6
aI11
aI9
aa(lp354
I11
aI10
aI5
aI20
aa(lp355
I15
aI10
aI5
aI16
aa(lp356
I10
aI17
aI8
aI11
aa(lp357
I11
aI24
aI11
aI0
aa(lp358
I1
aI7
aI14
aI24
aa(lp359
I5
aI13
aI16
aI12
aa(lp360
I7
aI12
aI21
aI6
aa(lp361
I8
aI9
aI10
aI19
aa(lp362
I6
aI15
aI18
aI7
aa(lp363
I20
aI12
aI7
aI7
aa(lp364
I5
aI26
aI3
aI12
aa(lp365
I1
aI0
aI0
aI45
aa(lp366
I9
aI8
aI18
aI11
aa(lp367
I0
aI0
aI0
aI46
aa(lp368
I22
aI16
aI3
aI5
aa(lp369
I14
aI10
aI11
aI11
aa(lp370
I6
aI3
aI11
aI26
aa(lp371
I6
aI15
aI18
aI7
aa(lp372
I5
aI10
aI20
aI11
aa(lp373
I17
aI7
aI3
aI19
aa(lp374
I11
aI20
aI6
aI9
aa(lp375
I11
aI11
aI8
aI16
aa(lp376
I19
aI13
aI1
aI13
aa(lp377
I19
aI18
aI6
aI3
aa(lp378
I11
aI0
aI27
aI8
aa(lp379
I12
aI5
aI20
aI9
aa(lp380
I13
aI9
aI9
aI15
aa(lp381
I19
aI16
aI7
aI4
aa(lp382
I0
aI46
aI0
aI0
aa(lp383
I6
aI30
aI0
aI10
aa(lp384
I19
aI9
aI2
aI16
aa(lp385
I3
aI12
aI10
aI21
aa(lp386
I17
aI8
aI7
aI14
aa(lp387
I12
aI10
aI8
aI16
aa(lp388
I7
aI8
aI25
aI6
aa(lp389
I11
aI12
aI11
aI12
aa(lp390
I1
aI5
aI7
aI33
aa(lp391
I7
aI14
aI10
aI15
aa(lp392
I0
aI2
aI44
aI0
aa(lp393
I14
aI8
aI8
aI16
aa(lp394
I5
aI11
aI17
aI13
aa(lp395
I10
aI13
aI14
aI9
aa(lp396
I5
aI13
aI9
aI19
aa(lp397
I2
aI10
aI20
aI14
aa(lp398
I3
aI4
aI13
aI26
aa(lp399
I11
aI16
aI9
aI10
aa(lp400
I14
aI19
aI10
aI3
aa(lp401
I7
aI4
aI12
aI23
aa(lp402
I15
aI8
aI20
aI3
aa(lp403
I6
aI18
aI21
aI1
aa(lp404
I11
aI3
aI13
aI19
aa(lp405
I13
aI12
aI5
aI16
aa(lp406
I17
aI10
aI8
aI11
aaa(lp407
(lp408
I8
aI6
aI44
aI6
aa(lp409
I20
aI26
aI14
aI4
aa(lp410
I15
aI24
aI9
aI16
aa(lp411
I12
aI16
aI18
aI18
aa(lp412
I4
aI7
aI31
aI22
aa(lp413
I4
aI23
aI28
aI9
aa(lp414
I22
aI21
aI18
aI3
aa(lp415
I17
aI15
aI9
aI23
aa(lp416
I25
aI32
aI6
aI1
aa(lp417
I17
aI14
aI17
aI16
aa(lp418
I15
aI3
aI40
aI6
aa(lp419
I8
aI10
aI30
aI16
aa(lp420
I25
aI7
aI8
aI24
aa(lp421
I8
aI14
aI15
aI27
aa(lp422
I34
aI9
aI10
aI11
aa(lp423
I14
aI17
aI13
aI20
aa(lp424
I13
aI17
aI18
aI16
aa(lp425
I11
aI16
aI30
aI7
aa(lp426
I10
aI5
aI19
aI30
aa(lp427
I16
aI12
aI23
aI13
aa(lp428
I12
aI20
aI14
aI18
aa(lp429
I8
aI22
aI5
aI29
aa(lp430
I8
aI10
aI11
aI35
aa(lp431
I20
aI25
aI7
aI12
aa(lp432
I7
aI41
aI2
aI14
aa(lp433
I27
aI2
aI8
aI27
aa(lp434
I4
aI10
aI31
aI19
aa(lp435
I0
aI29
aI33
aI2
aa(lp436
I9
aI16
aI30
aI9
aa(lp437
I27
aI9
aI15
aI13
aa(lp438
I6
aI0
aI56
aI2
aa(lp439
I5
aI26
aI10
aI23
aa(lp440
I15
aI6
aI31
aI12
aa(lp441
I22
aI9
aI13
aI20
aa(lp442
I14
aI15
aI8
aI27
aa(lp443
I15
aI8
aI15
aI26
aa(lp444
I11
aI41
aI3
aI9
aa(lp445
I2
aI22
aI20
aI20
aa(lp446
I8
aI22
aI7
aI27
aa(lp447
I9
aI9
aI31
aI15
aa(lp448
I22
aI12
aI20
aI10
aa(lp449
I18
aI1
aI16
aI29
aa(lp450
I14
aI15
aI23
aI12
aa(lp451
I19
aI1
aI28
aI16
aa(lp452
I5
aI34
aI16
aI9
aa(lp453
I33
aI12
aI13
aI6
aa(lp454
I32
aI9
aI13
aI10
aa(lp455
I5
aI18
aI8
aI33
aa(lp456
I19
aI8
aI14
aI23
aa(lp457
I12
aI27
aI9
aI16
aa(lp458
I13
aI26
aI24
aI1
aa(lp459
I4
aI6
aI26
aI28
aa(lp460
I9
aI23
aI16
aI16
aa(lp461
I9
aI12
aI33
aI10
aa(lp462
I5
aI12
aI18
aI29
aa(lp463
I6
aI12
aI31
aI15
aa(lp464
I23
aI24
aI7
aI10
aa(lp465
I9
aI42
aI2
aI11
aa(lp466
I8
aI18
aI34
aI4
aa(lp467
I11
aI10
aI31
aI12
aa(lp468
I15
aI15
aI4
aI30
aa(lp469
I29
aI32
aI2
aI1
aa(lp470
I13
aI17
aI11
aI23
aa(lp471
I36
aI27
aI0
aI1
aa(lp472
I19
aI17
aI24
aI4
aa(lp473
I0
aI0
aI1
aI63
aa(lp474
I26
aI15
aI5
aI18
aa(lp475
I16
aI34
aI8
aI6
aa(lp476
I22
aI23
aI8
aI11
aa(lp477
I27
aI17
aI3
aI17
aa(lp478
I21
aI26
aI15
aI2
aa(lp479
I31
aI11
aI3
aI19
aa(lp480
I25
aI7
aI20
aI12
aa(lp481
I16
aI9
aI4
aI35
aa(lp482
I22
aI22
aI18
aI2
aa(lp483
I33
aI5
aI12
aI14
aa(lp484
I17
aI29
aI3
aI15
aa(lp485
I23
aI17
aI8
aI16
aa(lp486
I0
aI41
aI23
aI0
aa(lp487
I9
aI14
aI41
aI0
aa(lp488
I10
aI12
aI25
aI17
aa(lp489
I7
aI30
aI17
aI10
aa(lp490
I18
aI19
aI9
aI18
aa(lp491
I5
aI10
aI10
aI39
aa(lp492
I8
aI15
aI9
aI32
aa(lp493
I16
aI21
aI14
aI13
aa(lp494
I10
aI17
aI14
aI23
aa(lp495
I19
aI11
aI20
aI14
aa(lp496
I8
aI10
aI27
aI19
aa(lp497
I13
aI14
aI14
aI23
aa(lp498
I9
aI15
aI28
aI12
aa(lp499
I0
aI64
aI0
aI0
aa(lp500
I14
aI24
aI12
aI14
aa(lp501
I0
aI27
aI37
aI0
aa(lp502
I8
aI11
aI10
aI35
aa(lp503
I25
aI11
aI22
aI6
aa(lp504
I22
aI18
aI24
aI0
aa(lp505
I6
aI7
aI20
aI31
aa(lp506
I14
aI18
aI14
aI18
aa(lp507
I21
aI15
aI13
aI15
aaa(lp508
(lp509
I28
aI18
aI60
aI20
aa(lp510
I72
aI0
aI14
aI40
aa(lp511
I31
aI39
aI25
aI31
aa(lp512
I38
aI27
aI36
aI25
aa(lp513
I28
aI10
aI54
aI34
aa(lp514
I7
aI53
aI44
aI22
aa(lp515
I31
aI37
aI51
aI7
aa(lp516
I25
aI31
aI24
aI46
aa(lp517
I117
aI4
aI0
aI5
aa(lp518
I41
aI17
aI43
aI25
aa(lp519
I18
aI13
aI85
aI10
aa(lp520
I8
aI21
aI47
aI50
aa(lp521
I36
aI19
aI15
aI56
aa(lp522
I24
aI21
aI25
aI56
aa(lp523
I58
aI18
aI16
aI34
aa(lp524
I47
aI5
aI48
aI26
aa(lp525
I19
aI27
aI53
aI27
aa(lp526
I10
aI37
aI61
aI18
aa(lp527
I22
aI14
aI19
aI71
aa(lp528
I24
aI22
aI62
aI18
aa(lp529
I38
aI33
aI14
aI41
aa(lp530
I20
aI34
aI10
aI62
aa(lp531
I21
aI21
aI12
aI72
aa(lp532
I41
aI45
aI16
aI24
aa(lp533
I20
aI73
aI2
aI31
aa(lp534
I53
aI7
aI11
aI55
aa(lp535
I13
aI11
aI58
aI44
aa(lp536
I31
aI36
aI13
aI46
aa(lp537
I17
aI41
aI55
aI13
aa(lp538
I54
aI8
aI39
aI25
aa(lp539
I11
aI17
aI17
aI81
aa(lp540
I17
aI54
aI21
aI34
aa(lp541
I48
aI5
aI55
aI18
aa(lp542
I40
aI24
aI13
aI49
aa(lp543
I21
aI18
aI11
aI76
aa(lp544
I32
aI19
aI26
aI49
aa(lp545
I23
aI78
aI13
aI12
aa(lp546
I8
aI32
aI51
aI35
aa(lp547
I29
aI44
aI11
aI42
aa(lp548
I27
aI27
aI46
aI26
aa(lp549
I50
aI23
aI34
aI19
aa(lp550
I31
aI9
aI23
aI63
aa(lp551
I15
aI39
aI50
aI22
aa(lp552
I39
aI8
aI53
aI26
aa(lp553
I6
aI64
aI39
aI17
aa(lp554
I63
aI26
aI22
aI15
aa(lp555
I1
aI122
aI3
aI0
aa(lp556
I15
aI28
aI21
aI62
aa(lp557
I32
aI28
aI24
aI42
aa(lp558
I19
aI64
aI23
aI20
aa(lp559
I26
aI53
aI42
aI5
aa(lp560
I0
aI0
aI126
aI0
aa(lp561
I21
aI0
aI3
aI102
aa(lp562
I29
aI27
aI48
aI22
aa(lp563
I6
aI25
aI45
aI50
aa(lp564
I17
aI27
aI46
aI36
aa(lp565
I50
aI40
aI14
aI22
aa(lp566
I2
aI34
aI90
aI0
aa(lp567
I30
aI23
aI27
aI46
aa(lp568
I22
aI24
aI46
aI34
aa(lp569
I22
aI24
aI25
aI55
aa(lp570
I52
aI60
aI6
aI8
aa(lp571
I44
aI30
aI27
aI25
aa(lp572
I15
aI19
aI34
aI58
aa(lp573
I20
aI42
aI52
aI12
aa(lp574
I26
aI31
aI45
aI24
aa(lp575
I51
aI14
aI15
aI46
aa(lp576
I43
aI41
aI24
aI18
aa(lp577
I34
aI29
aI16
aI47
aa(lp578
I38
aI38
aI5
aI45
aa(lp579
I44
aI48
aI28
aI6
aa(lp580
I46
aI37
aI11
aI32
aa(lp581
I48
aI14
aI44
aI20
aa(lp582
I27
aI22
aI9
aI68
aa(lp583
I39
aI39
aI35
aI13
aa(lp584
I58
aI7
aI20
aI41
aa(lp585
I31
aI52
aI3
aI40
aa(lp586
I41
aI34
aI20
aI31
aa(lp587
I9
aI27
aI28
aI62
aa(lp588
I41
aI18
aI16
aI51
aa(lp589
I30
aI31
aI37
aI28
aa(lp590
I1
aI16
aI105
aI4
aa(lp591
I16
aI15
aI58
aI37
aa(lp592
I19
aI24
aI21
aI62
aa(lp593
I12
aI31
aI35
aI48
aa(lp594
I25
aI44
aI29
aI28
aa(lp595
I29
aI39
aI25
aI33
aa(lp596
I25
aI30
aI35
aI36
aa(lp597
I16
aI33
aI58
aI19
aa(lp598
I27
aI26
aI31
aI42
aa(lp599
I10
aI28
aI50
aI38
aa(lp600
I12
aI11
aI54
aI49
aa(lp601
I35
aI44
aI18
aI29
aa(lp602
I32
aI48
aI30
aI16
aa(lp603
I23
aI18
aI18
aI67
aa(lp604
I69
aI4
aI52
aI1
aa(lp605
I27
aI42
aI55
aI2
aa(lp606
I27
aI8
aI31
aI60
aa(lp607
I25
aI21
aI20
aI60
aa(lp608
I47
aI22
aI28
aI29
aaa(lp609
(lp610
I34
aI9
aI91
aI15
aa(lp611
I50
aI51
aI31
aI17
aa(lp612
I28
aI45
aI38
aI38
aa(lp613
I50
aI0
aI21
aI78
aa(lp614
I29
aI11
aI64
aI45
aa(lp615
I7
aI56
aI55
aI31
aa(lp616
I39
aI48
aI55
aI7
aa(lp617
I28
aI49
aI19
aI53
aa(lp618
I16
aI6
aI78
aI49
aa(lp619
I53
aI18
aI41
aI37
aa(lp620
I28
aI11
aI101
aI9
aa(lp621
I17
aI32
aI53
aI47
aa(lp622
I11
aI69
aI10
aI59
aa(lp623
I25
aI18
aI38
aI68
aa(lp624
I69
aI18
aI17
aI45
aa(lp625
I31
aI39
aI30
aI49
aa(lp626
I25
aI26
aI60
aI38
aa(lp627
I29
aI42
aI54
aI24
aa(lp628
I37
aI17
aI30
aI65
aa(lp629
I37
aI25
aI47
aI40
aa(lp630
I30
aI54
aI19
aI46
aa(lp631
I17
aI46
aI10
aI76
aa(lp632
I0
aI149
aI0
aI0
aa(lp633
I52
aI38
aI26
aI33
aa(lp634
I16
aI102
aI3
aI28
aa(lp635
I63
aI9
aI13
aI64
aa(lp636
I11
aI19
aI72
aI47
aa(lp637
I38
aI52
aI22
aI37
aa(lp638
I22
aI47
aI68
aI12
aa(lp639
I63
aI21
aI38
aI27
aa(lp640
I25
aI15
aI17
aI92
aa(lp641
I16
aI75
aI17
aI41
aa(lp642
I58
aI6
aI68
aI17
aa(lp643
I49
aI22
aI15
aI63
aa(lp644
I29
aI24
aI28
aI68
aa(lp645
I40
aI16
aI27
aI66
aa(lp646
I19
aI99
aI20
aI11
aa(lp647
I6
aI37
aI52
aI54
aa(lp648
I16
aI43
aI21
aI69
aa(lp649
I33
aI32
aI52
aI32
aa(lp650
I66
aI34
aI31
aI18
aa(lp651
I2
aI14
aI31
aI102
aa(lp652
I36
aI46
aI42
aI25
aa(lp653
I36
aI7
aI57
aI49
aa(lp654
I9
aI81
aI35
aI24
aa(lp655
I104
aI0
aI39
aI6
aa(lp656
I64
aI23
aI39
aI23
aa(lp657
I26
aI36
aI14
aI73
aa(lp658
I33
aI24
aI34
aI58
aa(lp659
I2
aI62
aI52
aI33
aa(lp660
I38
aI56
aI46
aI9
aa(lp661
I4
aI32
aI38
aI75
aa(lp662
I15
aI53
aI36
aI45
aa(lp663
I21
aI39
aI66
aI23
aa(lp664
I15
aI33
aI47
aI54
aa(lp665
I19
aI40
aI54
aI36
aa(lp666
I0
aI1
aI58
aI90
aa(lp667
I14
aI92
aI6
aI37
aa(lp668
I46
aI27
aI33
aI43
aa(lp669
I30
aI21
aI66
aI32
aa(lp670
I17
aI36
aI32
aI64
aa(lp671
I60
aI74
aI7
aI8
aa(lp672
I39
aI39
aI25
aI46
aa(lp673
I28
aI21
aI44
aI56
aa(lp674
I27
aI48
aI66
aI8
aa(lp675
I29
aI26
aI51
aI43
aa(lp676
I57
aI25
aI8
aI59
aa(lp677
I49
aI51
aI24
aI25
aa(lp678
I61
aI45
aI14
aI29
aa(lp679
I59
aI44
aI7
aI39
aa(lp680
I55
aI62
aI29
aI3
aa(lp681
I67
aI27
aI17
aI38
aa(lp682
I57
aI17
aI41
aI34
aa(lp683
I27
aI25
aI20
aI77
aa(lp684
I49
aI41
aI51
aI8
aa(lp685
I57
aI11
aI24
aI57
aa(lp686
I26
aI74
aI6
aI43
aa(lp687
I45
aI40
aI21
aI43
aa(lp688
I14
aI43
aI35
aI57
aa(lp689
I48
aI21
aI21
aI59
aa(lp690
I38
aI31
aI40
aI40
aa(lp691
I33
aI32
aI46
aI38
aa(lp692
I0
aI0
aI0
aI149
aa(lp693
I13
aI24
aI19
aI93
aa(lp694
I17
aI42
aI35
aI55
aa(lp695
I33
aI49
aI34
aI33
aa(lp696
I27
aI38
aI44
aI40
aa(lp697
I26
aI37
aI40
aI46
aa(lp698
I13
aI40
aI66
aI30
aa(lp699
I27
aI37
aI32
aI53
aa(lp700
I17
aI45
aI59
aI28
aa(lp701
I19
aI15
aI52
aI63
aa(lp702
I129
aI0
aI2
aI18
aa(lp703
I25
aI61
aI40
aI23
aa(lp704
I25
aI21
aI32
aI71
aa(lp705
I53
aI26
aI53
aI17
aa(lp706
I29
aI60
aI60
aI0
aa(lp707
I26
aI6
aI60
aI57
aa(lp708
I28
aI35
aI27
aI59
aa(lp709
I64
aI32
aI20
aI33
aaa(lp710
(lp711
I5
aI6
aI15
aI7
aa(lp712
I9
aI11
aI8
aI5
aa(lp713
I5
aI12
aI5
aI11
aa(lp714
I6
aI9
aI12
aI6
aa(lp715
I8
aI4
aI11
aI10
aa(lp716
I1
aI11
aI15
aI6
aa(lp717
I1
aI0
aI29
aI3
aa(lp718
I8
aI11
aI5
aI9
aa(lp719
I17
aI12
aI4
aI0
aa(lp720
I11
aI5
aI8
aI9
aa(lp721
I7
aI3
aI21
aI2
aa(lp722
I4
aI9
aI8
aI12
aa(lp723
I6
aI7
aI2
aI18
aa(lp724
I4
aI7
aI7
aI15
aa(lp725
I10
aI6
aI8
aI9
aa(lp726
I8
aI9
aI6
aI10
aa(lp727
I0
aI0
aI33
aI0
aa(lp728
I4
aI5
aI16
aI8
aa(lp729
I3
aI3
aI6
aI21
aa(lp730
I7
aI8
aI12
aI6
aa(lp731
I8
aI15
aI2
aI8
aa(lp732
I5
aI6
aI4
aI18
aa(lp733
I4
aI8
aI4
aI17
aa(lp734
I0
aI0
aI30
aI3
aa(lp735
I2
aI26
aI0
aI5
aa(lp736
I23
aI1
aI3
aI6
aa(lp737
I2
aI1
aI20
aI10
aa(lp738
I8
aI9
aI3
aI13
aa(lp739
I10
aI3
aI16
aI4
aa(lp740
I14
aI3
aI10
aI6
aa(lp741
I9
aI1
aI5
aI18
aa(lp742
I2
aI14
aI10
aI7
aa(lp743
I1
aI0
aI11
aI21
aa(lp744
I12
aI3
aI4
aI14
aa(lp745
I7
aI7
aI4
aI15
aa(lp746
I6
aI2
aI9
aI16
aa(lp747
I5
aI23
aI2
aI3
aa(lp748
I1
aI7
aI17
aI8
aa(lp749
I2
aI9
aI3
aI19
aa(lp750
I6
aI6
aI9
aI12
aa(lp751
I13
aI8
aI8
aI4
aa(lp752
I8
aI1
aI5
aI19
aa(lp753
I4
aI7
aI15
aI7
aa(lp754
I10
aI2
aI12
aI9
aa(lp755
I17
aI12
aI4
aI0
aa(lp756
I16
aI6
aI8
aI3
aa(lp757
I14
aI6
aI7
aI6
aa(lp758
I5
aI9
aI5
aI14
aa(lp759
I1
aI10
aI3
aI19
aa(lp760
I9
aI14
aI3
aI7
aa(lp761
I10
aI16
aI7
aI0
aa(lp762
I4
aI5
aI12
aI12
aa(lp763
I4
aI10
aI9
aI10
aa(lp764
I6
aI5
aI14
aI8
aa(lp765
I2
aI24
aI0
aI7
aa(lp766
I3
aI6
aI15
aI9
aa(lp767
I10
aI14
aI0
aI9
aa(lp768
I2
aI19
aI0
aI12
aa(lp769
I10
aI8
aI8
aI7
aa(lp770
I0
aI14
aI1
aI18
aa(lp771
I7
aI6
aI5
aI15
aa(lp772
I10
aI20
aI2
aI1
aa(lp773
I13
aI4
aI7
aI9
aa(lp774
I6
aI5
aI9
aI13
aa(lp775
I6
aI9
aI17
aI1
aa(lp776
I5
aI4
aI16
aI8
aa(lp777
I13
aI0
aI3
aI17
aa(lp778
I9
aI15
aI4
aI5
aa(lp779
I8
aI14
aI6
aI5
aa(lp780
I12
aI10
aI2
aI9
aa(lp781
I10
aI11
aI8
aI4
aa(lp782
I15
aI3
aI2
aI13
aa(lp783
I11
aI3
aI12
aI7
aa(lp784
I11
aI5
aI4
aI13
aa(lp785
I9
aI10
aI12
aI2
aa(lp786
I15
aI3
aI6
aI9
aa(lp787
I10
aI16
aI0
aI7
aa(lp788
I8
aI15
aI3
aI7
aa(lp789
I1
aI8
aI9
aI15
aa(lp790
I8
aI3
aI4
aI18
aa(lp791
I7
aI5
aI9
aI12
aa(lp792
I4
aI0
aI21
aI8
aa(lp793
I14
aI10
aI4
aI5
aa(lp794
I5
aI5
aI5
aI18
aa(lp795
I7
aI11
aI5
aI10
aa(lp796
I10
aI8
aI9
aI6
aa(lp797
I6
aI11
aI5
aI11
aa(lp798
I8
aI7
aI12
aI6
aa(lp799
I3
aI13
aI10
aI7
aa(lp800
I4
aI8
aI5
aI16
aa(lp801
I5
aI9
aI10
aI9
aa(lp802
I4
aI4
aI13
aI12
aa(lp803
I8
aI12
aI4
aI9
aa(lp804
I8
aI7
aI9
aI9
aa(lp805
I0
aI3
aI6
aI24
aa(lp806
I12
aI9
aI8
aI4
aa(lp807
I6
aI14
aI12
aI1
aa(lp808
I5
aI3
aI11
aI14
aa(lp809
I3
aI13
aI9
aI8
aa(lp810
I15
aI7
aI8
aI3
aaa(lp811
(lp812
I56
aI34
aI144
aI25
aa(lp813
I96
aI85
aI43
aI35
aa(lp814
I64
aI78
aI63
aI54
aa(lp815
I55
aI60
aI80
aI64
aa(lp816
I46
aI24
aI109
aI80
aa(lp817
I14
aI99
aI96
aI50
aa(lp818
I67
aI86
aI84
aI22
aa(lp819
I38
aI81
aI48
aI92
aa(lp820
I87
aI128
aI37
aI7
aa(lp821
I96
aI38
aI77
aI48
aa(lp822
I43
aI15
aI182
aI19
aa(lp823
I19
aI48
aI94
aI98
aa(lp824
I67
aI41
aI32
aI119
aa(lp825
I0
aI0
aI259
aI0
aa(lp826
I136
aI110
aI0
aI13
aa(lp827
I59
aI70
aI42
aI88
aa(lp828
I33
aI59
aI106
aI61
aa(lp829
I31
aI51
aI134
aI43
aa(lp830
I60
aI19
aI56
aI124
aa(lp831
I32
aI86
aI4
aI137
aa(lp832
I55
aI87
aI44
aI73
aa(lp833
I49
aI78
aI14
aI118
aa(lp834
I34
aI60
aI31
aI134
aa(lp835
I86
aI101
aI28
aI44
aa(lp836
I44
aI200
aI11
aI4
aa(lp837
I108
aI8
aI27
aI116
aa(lp838
I29
aI32
aI116
aI82
aa(lp839
I44
aI104
aI26
aI85
aa(lp840
I43
aI71
aI111
aI34
aa(lp841
I95
aI27
aI82
aI55
aa(lp842
I37
aI28
aI38
aI156
aa(lp843
I20
aI120
aI42
aI77
aa(lp844
I81
aI12
aI115
aI51
aa(lp845
I85
aI31
aI24
aI119
aa(lp846
I43
aI41
aI31
aI144
aa(lp847
I72
aI30
aI41
aI116
aa(lp848
I37
aI178
aI26
aI18
aa(lp849
I24
aI61
aI95
aI79
aa(lp850
I39
aI64
aI32
aI124
aa(lp851
I49
aI41
aI114
aI55
aa(lp852
I98
aI51
aI58
aI52
aa(lp853
I72
aI19
aI49
aI119
aa(lp854
I35
aI79
aI91
aI54
aa(lp855
I64
aI11
aI108
aI76
aa(lp856
I18
aI129
aI69
aI43
aa(lp857
I106
aI55
aI57
aI41
aa(lp858
I117
aI52
aI59
aI31
aa(lp859
I48
aI70
aI49
aI92
aa(lp860
I48
aI48
aI61
aI102
aa(lp861
I39
aI130
aI39
aI51
aa(lp862
I70
aI114
aI70
aI5
aa(lp863
I14
aI38
aI72
aI135
aa(lp864
I38
aI87
aI51
aI83
aa(lp865
I37
aI38
aI129
aI55
aa(lp866
I27
aI61
aI83
aI88
aa(lp867
I35
aI65
aI99
aI60
aa(lp868
I103
aI86
aI25
aI45
aa(lp869
I30
aI158
aI11
aI60
aa(lp870
I76
aI58
aI52
aI73
aa(lp871
I52
aI46
aI108
aI53
aa(lp872
I46
aI57
aI49
aI107
aa(lp873
I104
aI135
aI5
aI15
aa(lp874
I77
aI59
aI61
aI62
aa(lp875
I42
aI32
aI76
aI109
aa(lp876
I0
aI0
aI0
aI259
aa(lp877
I47
aI60
aI83
aI69
aa(lp878
I91
aI44
aI14
aI110
aa(lp879
I68
aI85
aI52
aI54
aa(lp880
I78
aI73
aI36
aI72
aa(lp881
I257
aI2
aI0
aI0
aa(lp882
I82
aI117
aI54
aI6
aa(lp883
I116
aI57
aI27
aI59
aa(lp884
I0
aI0
aI259
aI0
aa(lp885
I68
aI41
aI31
aI119
aa(lp886
I84
aI78
aI84
aI13
aa(lp887
I0
aI259
aI0
aI0
aa(lp888
I47
aI125
aI14
aI73
aa(lp889
I79
aI82
aI31
aI67
aa(lp890
I18
aI56
aI69
aI116
aa(lp891
I96
aI22
aI31
aI110
aa(lp892
I53
aI60
aI83
aI63
aa(lp893
I41
aI59
aI104
aI55
aa(lp894
I65
aI69
aI53
aI72
aa(lp895
I24
aI36
aI46
aI153
aa(lp896
I0
aI233
aI26
aI0
aa(lp897
I72
aI81
aI50
aI56
aa(lp898
I52
aI82
aI64
aI61
aa(lp899
I38
aI57
aI80
aI84
aa(lp900
I39
aI66
aI103
aI51
aa(lp901
I52
aI60
aI59
aI88
aa(lp902
I259
aI0
aI0
aI0
aa(lp903
I36
aI26
aI90
aI107
aa(lp904
I69
aI97
aI33
aI60
aa(lp905
I56
aI90
aI60
aI53
aa(lp906
I56
aI39
aI39
aI125
aa(lp907
I93
aI53
aI101
aI12
aa(lp908
I57
aI88
aI112
aI2
aa(lp909
I45
aI18
aI76
aI120
aa(lp910
I56
aI66
aI45
aI92
aa(lp911
I100
aI51
aI57
aI51
aaa(lp912
(lp913
I20
aI10
aI55
aI10
aa(lp914
I30
aI33
aI23
aI9
aa(lp915
I17
aI33
aI25
aI20
aa(lp916
I24
aI17
aI35
aI19
aa(lp917
I17
aI9
aI46
aI23
aa(lp918
I2
aI32
aI45
aI16
aa(lp919
I27
aI21
aI41
aI6
aa(lp920
I1
aI0
aI94
aI0
aa(lp921
I32
aI52
aI10
aI1
aa(lp922
I32
aI15
aI26
aI22
aa(lp923
I24
aI3
aI65
aI3
aa(lp924
I6
aI21
aI33
aI35
aa(lp925
I25
aI10
aI14
aI46
aa(lp926
I52
aI22
aI0
aI21
aa(lp927
I39
aI12
aI11
aI33
aa(lp928
I19
aI27
aI20
aI29
aa(lp929
I16
aI16
aI42
aI21
aa(lp930
I12
aI26
aI38
aI19
aa(lp931
I22
aI10
aI16
aI47
aa(lp932
I21
aI15
aI28
aI31
aa(lp933
I25
aI25
aI15
aI30
aa(lp934
I14
aI28
aI7
aI46
aa(lp935
I0
aI6
aI79
aI10
aa(lp936
I24
aI35
aI9
aI27
aa(lp937
I7
aI65
aI2
aI21
aa(lp938
I42
aI3
aI10
aI40
aa(lp939
I10
aI11
aI39
aI35
aa(lp940
I22
aI32
aI15
aI26
aa(lp941
I11
aI26
aI48
aI10
aa(lp942
I31
aI6
aI25
aI33
aa(lp943
I15
aI12
aI13
aI55
aa(lp944
I12
aI48
aI6
aI29
aa(lp945
I35
aI6
aI39
aI15
aa(lp946
I30
aI20
aI10
aI35
aa(lp947
I15
aI14
aI20
aI46
aa(lp948
I26
aI12
aI18
aI39
aa(lp949
I18
aI57
aI12
aI8
aa(lp950
I27
aI68
aI0
aI0
aa(lp951
I11
aI25
aI17
aI42
aa(lp952
I15
aI15
aI40
aI25
aa(lp953
I38
aI15
aI30
aI12
aa(lp954
I23
aI3
aI12
aI57
aa(lp955
I14
aI33
aI27
aI21
aa(lp956
I23
aI6
aI34
aI32
aa(lp957
I13
aI23
aI13
aI46
aa(lp958
I26
aI20
aI30
aI19
aa(lp959
I38
aI18
aI27
aI12
aa(lp960
I20
aI20
aI12
aI43
aa(lp961
I19
aI13
aI21
aI42
aa(lp962
I14
aI43
aI15
aI23
aa(lp963
I23
aI39
aI31
aI2
aa(lp964
I5
aI22
aI24
aI44
aa(lp965
I13
aI37
aI23
aI22
aa(lp966
I16
aI15
aI43
aI21
aa(lp967
I9
aI20
aI26
aI40
aa(lp968
I19
aI18
aI37
aI21
aa(lp969
I32
aI29
aI7
aI27
aa(lp970
I10
aI61
aI2
aI22
aa(lp971
I26
aI24
aI15
aI30
aa(lp972
I19
aI18
aI45
aI13
aa(lp973
I0
aI1
aI0
aI94
aa(lp974
I36
aI47
aI1
aI11
aa(lp975
I30
aI27
aI14
aI24
aa(lp976
I19
aI6
aI30
aI40
aa(lp977
I39
aI11
aI45
aI0
aa(lp978
I23
aI18
aI24
aI30
aa(lp979
I36
aI12
aI10
aI37
aa(lp980
I24
aI27
aI25
aI19
aa(lp981
I32
aI21
aI15
aI27
aa(lp982
I40
aI25
aI3
aI27
aa(lp983
I33
aI34
aI24
aI4
aa(lp984
I38
aI17
aI7
aI33
aa(lp985
I37
aI15
aI28
aI15
aa(lp986
I18
aI8
aI11
aI58
aa(lp987
I28
aI30
aI31
aI6
aa(lp988
I34
aI8
aI16
aI37
aa(lp989
I20
aI46
aI6
aI23
aa(lp990
I27
aI23
aI14
aI31
aa(lp991
I9
aI21
aI25
aI40
aa(lp992
I33
aI12
aI17
aI33
aa(lp993
I14
aI26
aI29
aI26
aa(lp994
I10
aI21
aI39
aI25
aa(lp995
I24
aI34
aI13
aI24
aa(lp996
I12
aI7
aI17
aI59
aa(lp997
I6
aI15
aI67
aI7
aa(lp998
I27
aI27
aI23
aI18
aa(lp999
I19
aI31
aI25
aI20
aa(lp1000
I11
aI26
aI34
aI24
aa(lp1001
I17
aI16
aI44
aI18
aa(lp1002
I19
aI23
aI23
aI30
aa(lp1003
I9
aI21
aI41
aI24
aa(lp1004
I12
aI13
aI27
aI43
aa(lp1005
I25
aI36
aI10
aI24
aa(lp1006
I79
aI16
aI0
aI0
aa(lp1007
I23
aI17
aI13
aI42
aa(lp1008
I42
aI14
aI33
aI6
aa(lp1009
I19
aI35
aI41
aI0
aa(lp1010
I19
aI5
aI29
aI42
aa(lp1011
I15
aI26
aI12
aI42
aa(lp1012
I33
aI49
aI13
aI0
aaasS'posCount'
p1013
(lp1014
I9
aI10
aI10
aI10
aI10
aI11
aI10
aI10
aI10
aI10
asS'features'
p1015
I100
sS'tu'
p1016
I0
sS'pos'
p1017
(lp1018
(lp1019
I8
aI10
aI12
aI14
aI21
aI46
aI66
aI71
aI89
aa(lp1020
I2
aI7
aI8
aI13
aI29
aI37
aI85
aI90
aI95
aI97
aa(lp1021
I14
aI38
aI44
aI57
aI65
aI69
aI71
aI80
aI81
aI91
aa(lp1022
I1
aI6
aI8
aI17
aI21
aI58
aI60
aI71
aI75
aI85
aa(lp1023
I27
aI30
aI58
aI63
aI65
aI78
aI79
aI81
aI91
aI93
aa(lp1024
I1
aI8
aI15
aI38
aI46
aI51
aI52
aI57
aI81
aI82
aI95
aa(lp1025
I3
aI8
aI12
aI22
aI41
aI45
aI49
aI56
aI82
aI92
aa(lp1026
I6
aI16
aI23
aI32
aI44
aI48
aI54
aI59
aI81
aI94
aa(lp1027
I13
aI14
aI19
aI24
aI64
aI69
aI72
aI75
aI84
aI90
aa(lp1028
I7
aI13
aI22
aI37
aI44
aI60
aI64
aI84
aI93
aI99
aasS'n'
p1029
I1000
sS'featureValues'
p1030
I4
sS'fnoise'
p1031
(lp1032
I1000
aI828
aI895
aI851
aI1000
aI1000
aI921
aI800
aI515
aI1000
aI941
aI1000
aI792
aI541
aI618
aI874
aI967
aI954
aI1000
aI741
aI1000
aI895
aI756
aI967
aI741
aI1000
aI1000
aI936
aI1000
aI895
aI936
aI1000
aI967
aI1000
aI1000
aI1000
aI1000
aI800
aI810
aI1000
aI1000
aI851
aI1000
aI1000
aI808
aI851
aI815
aI1000
aI967
aI851
aI1000
aI874
aI874
aI1000
aI967
aI1000
aI851
aI810
aI890
aI967
aI859
aI1000
aI1000
aI936
aI646
aI872
aI941
aI1000
aI1000
aI677
aI1000
aI831
aI741
aI1000
aI1000
aI695
aI1000
aI1000
aI936
aI936
aI936
aI713
aI725
aI1000
aI646
aI849
aI1000
aI1000
aI1000
aI941
aI636
aI872
aI851
aI841
aI967
aI769
aI1000
aI895
aI1000
aI905
asS't'
p1033
(lp1034
I59
aI105
aI64
aI46
aI64
aI126
aI149
aI33
aI259
aI95
asS'alpha'
p1035
F1.0
sS'lambda'
p1036
F7.0
sS'arch'
p1037
I10
sS'fvNoise'
p1038
(lp1039
(lp1040
I203
aI107
aI573
aI117
aa(lp1041
I286
aI272
aI178
aI92
aa(lp1042
I193
aI289
aI200
aI213
aa(lp1043
I199
aI184
aI269
aI199
aa(lp1044
I173
aI83
aI444
aI300
aa(lp1045
I46
aI386
aI375
aI193
aa(lp1046
I242
aI290
aI327
aI62
aa(lp1047
I152
aI241
aI139
aI268
aa(lp1048
I192
aI250
aI64
aI9
aa(lp1049
I356
aI145
aI292
aI207
aa(lp1050
I171
aI63
aI649
aI58
aa(lp1051
I90
aI186
aI370
aI354
aa(lp1052
I221
aI118
aI90
aI363
aa(lp1053
I89
aI91
aI123
aI238
aa(lp1054
I285
aI82
aI75
aI176
aa(lp1055
I207
aI237
aI144
aI286
aa(lp1056
I138
aI207
aI391
aI231
aa(lp1057
I130
aI228
aI433
aI163
aa(lp1058
I207
aI97
aI213
aI483
aa(lp1059
I164
aI134
aI270
aI173
aa(lp1060
I230
aI332
aI142
aI296
aa(lp1061
I138
aI258
aI60
aI439
aa(lp1062
I109
aI161
aI98
aI388
aa(lp1063
I302
aI350
aI117
aI198
aa(lp1064
I83
aI485
aI14
aI159
aa(lp1065
I444
aI45
aI98
aI413
aa(lp1066
I95
aI108
aI458
aI339
aa(lp1067
I213
aI334
aI108
aI281
aa(lp1068
I164
aI292
aI440
aI104
aa(lp1069
I342
aI95
aI262
aI196
aa(lp1070
I137
aI98
aI129
aI572
aa(lp1071
I100
aI468
aI145
aI287
aa(lp1072
I334
aI49
aI431
aI153
aa(lp1073
I332
aI155
aI110
aI403
aa(lp1074
I166
aI172
aI152
aI510
aa(lp1075
I249
aI118
aI189
aI444
aa(lp1076
I171
aI629
aI108
aI92
aa(lp1077
I61
aI194
aI289
aI256
aa(lp1078
I101
aI212
aI114
aI383
aa(lp1079
I189
aI181
aI409
aI221
aa(lp1080
I402
aI198
aI246
aI154
aa(lp1081
I230
aI54
aI154
aI413
aa(lp1082
I165
aI319
aI326
aI190
aa(lp1083
I284
aI46
aI399
aI271
aa(lp1084
I49
aI410
aI227
aI122
aa(lp1085
I349
aI190
aI185
aI127
aa(lp1086
I363
aI145
aI179
aI128
aa(lp1087
I171
aI249
aI142
aI438
aa(lp1088
I208
aI182
aI206
aI371
aa(lp1089
I133
aI415
aI133
aI170
aa(lp1090
I243
aI431
aI298
aI28
aa(lp1091
I48
aI142
aI271
aI413
aa(lp1092
I99
aI303
aI212
aI260
aa(lp1093
I166
aI189
aI454
aI191
aa(lp1094
I90
aI205
aI285
aI387
aa(lp1095
I148
aI230
aI378
aI244
aa(lp1096
I320
aI282
aI75
aI174
aa(lp1097
I95
aI501
aI35
aI179
aa(lp1098
I266
aI195
aI179
aI250
aa(lp1099
I186
aI168
aI412
aI201
aa(lp1100
I143
aI177
aI160
aI379
aa(lp1101
I410
aI488
aI33
aI69
aa(lp1102
I292
aI243
aI207
aI258
aa(lp1103
I159
aI116
aI257
aI404
aa(lp1104
I125
aI202
aI259
aI60
aa(lp1105
I161
aI184
aI302
aI225
aa(lp1106
I346
aI143
aI74
aI378
aa(lp1107
I296
aI345
aI186
aI173
aa(lp1108
I318
aI287
aI129
aI266
aa(lp1109
I267
aI188
aI25
aI197
aa(lp1110
I331
aI427
aI208
aI34
aa(lp1111
I356
aI177
aI79
aI219
aa(lp1112
I269
aI82
aI244
aI146
aa(lp1113
I235
aI150
aI122
aI493
aa(lp1114
I323
aI300
aI314
aI63
aa(lp1115
I284
aI46
aI122
aI243
aa(lp1116
I209
aI471
aI48
aI272
aa(lp1117
I325
aI272
aI123
aI280
aa(lp1118
I71
aI209
aI242
aI414
aa(lp1119
I316
aI126
aI122
aI372
aa(lp1120
I203
aI209
aI290
aI234
aa(lp1121
I120
aI151
aI292
aI150
aa(lp1122
I190
aI214
aI129
aI192
aa(lp1123
I102
aI140
aI155
aI603
aa(lp1124
I74
aI182
aI155
aI235
aa(lp1125
I213
aI275
aI180
aI181
aa(lp1126
I189
aI300
aI248
aI263
aa(lp1127
I169
aI237
aI317
aI277
aa(lp1128
I133
aI253
aI415
aI199
aa(lp1129
I187
aI211
aI210
aI333
aa(lp1130
I59
aI156
aI263
aI158
aa(lp1131
I104
aI90
aI309
aI369
aa(lp1132
I227
aI308
aI125
aI191
aa(lp1133
I189
aI300
aI221
aI131
aa(lp1134
I186
aI145
aI173
aI463
aa(lp1135
I289
aI146
aI280
aI54
aa(lp1136
I218
aI360
aI414
aI8
aa(lp1137
I159
aI54
aI276
aI406
aa(lp1138
I199
aI256
aI166
aI379
aa(lp1139
I350
aI190
aI186
aI179
aas.