(dp0
S'count'
p1
(lp2
(lp3
(lp4
I28
aI18
aI60
aI19
aa(lp5
I71
aI0
aI14
aI40
aa(lp6
I31
aI39
aI24
aI31
aa(lp7
I37
aI27
aI36
aI25
aa(lp8
I28
aI10
aI54
aI33
aa(lp9
I7
aI53
aI43
aI22
aa(lp10
I31
aI37
aI50
aI7
aa(lp11
I25
aI30
aI24
aI46
aa(lp12
I116
aI4
aI0
aI5
aa(lp13
I41
aI17
aI42
aI25
aa(lp14
I18
aI13
aI84
aI10
aa(lp15
I7
aI21
aI47
aI50
aa(lp16
I36
aI19
aI15
aI55
aa(lp17
I23
aI21
aI25
aI56
aa(lp18
I58
aI17
aI16
aI34
aa(lp19
I46
aI5
aI48
aI26
aa(lp20
I19
aI27
aI53
aI26
aa(lp21
I9
aI37
aI61
aI18
aa(lp22
I22
aI14
aI19
aI70
aa(lp23
I24
aI22
aI61
aI18
aa(lp24
I38
aI32
aI14
aI41
aa(lp25
I20
aI34
aI9
aI62
aa(lp26
I21
aI21
aI12
aI71
aa(lp27
I41
aI45
aI16
aI23
aa(lp28
I20
aI72
aI2
aI31
aa(lp29
I52
aI7
aI11
aI55
aa(lp30
I13
aI11
aI58
aI43
aa(lp31
I30
aI36
aI13
aI46
aa(lp32
I17
aI41
aI54
aI13
aa(lp33
I53
aI8
aI39
aI25
aa(lp34
I11
aI16
aI17
aI81
aa(lp35
I17
aI53
aI21
aI34
aa(lp36
I47
aI5
aI55
aI18
aa(lp37
I39
aI24
aI13
aI49
aa(lp38
I21
aI18
aI11
aI75
aa(lp39
I32
aI19
aI25
aI49
aa(lp40
I23
aI77
aI13
aI12
aa(lp41
I8
aI32
aI51
aI34
aa(lp42
I29
aI44
aI11
aI41
aa(lp43
I27
aI26
aI46
aI26
aa(lp44
I50
aI23
aI33
aI19
aa(lp45
I31
aI9
aI23
aI62
aa(lp46
I15
aI39
aI50
aI21
aa(lp47
I39
aI8
aI52
aI26
aa(lp48
I6
aI63
aI39
aI17
aa(lp49
I63
aI25
aI22
aI15
aa(lp50
I1
aI122
aI2
aI0
aa(lp51
I15
aI28
aI21
aI61
aa(lp52
I32
aI28
aI24
aI41
aa(lp53
I19
aI64
aI23
aI19
aa(lp54
I26
aI52
aI42
aI5
aa(lp55
I0
aI0
aI125
aI0
aa(lp56
I20
aI0
aI3
aI102
aa(lp57
I29
aI27
aI48
aI21
aa(lp58
I6
aI25
aI45
aI49
aa(lp59
I17
aI27
aI45
aI36
aa(lp60
I50
aI39
aI14
aI22
aa(lp61
I2
aI33
aI90
aI0
aa(lp62
I30
aI22
aI27
aI46
aa(lp63
I22
aI23
aI46
aI34
aa(lp64
I22
aI24
aI25
aI54
aa(lp65
I52
aI59
aI6
aI8
aa(lp66
I43
aI30
aI27
aI25
aa(lp67
I15
aI19
aI34
aI57
aa(lp68
I20
aI41
aI52
aI12
aa(lp69
I26
aI31
aI44
aI24
aa(lp70
I51
aI14
aI15
aI45
aa(lp71
I43
aI40
aI24
aI18
aa(lp72
I34
aI28
aI16
aI47
aa(lp73
I38
aI38
aI5
aI44
aa(lp74
I43
aI48
aI28
aI6
aa(lp75
I45
aI37
aI11
aI32
aa(lp76
I47
aI14
aI44
aI20
aa(lp77
I27
aI22
aI9
aI67
aa(lp78
I38
aI39
aI35
aI13
aa(lp79
I58
aI7
aI20
aI40
aa(lp80
I31
aI52
aI3
aI39
aa(lp81
I40
aI34
aI20
aI31
aa(lp82
I8
aI27
aI28
aI62
aa(lp83
I40
aI18
aI16
aI51
aa(lp84
I30
aI31
aI36
aI28
aa(lp85
I1
aI16
aI104
aI4
aa(lp86
I15
aI15
aI58
aI37
aa(lp87
I19
aI24
aI21
aI61
aa(lp88
I12
aI31
aI35
aI47
aa(lp89
I25
aI44
aI29
aI27
aa(lp90
I28
aI39
aI25
aI33
aa(lp91
I25
aI30
aI35
aI35
aa(lp92
I16
aI33
aI57
aI19
aa(lp93
I27
aI26
aI31
aI41
aa(lp94
I10
aI28
aI50
aI37
aa(lp95
I12
aI11
aI53
aI49
aa(lp96
I35
aI44
aI17
aI29
aa(lp97
I31
aI48
aI30
aI16
aa(lp98
I23
aI18
aI18
aI66
aa(lp99
I69
aI4
aI51
aI1
aa(lp100
I27
aI41
aI55
aI2
aa(lp101
I27
aI8
aI31
aI59
aa(lp102
I25
aI21
aI20
aI59
aa(lp103
I47
aI22
aI27
aI29
aaa(lp104
(lp105
I34
aI9
aI91
aI14
aa(lp106
I50
aI50
aI31
aI17
aa(lp107
I28
aI45
aI37
aI38
aa(lp108
I50
aI0
aI21
aI77
aa(lp109
I29
aI11
aI63
aI45
aa(lp110
I7
aI56
aI55
aI30
aa(lp111
I38
aI48
aI55
aI7
aa(lp112
I28
aI48
aI19
aI53
aa(lp113
I16
aI6
aI77
aI49
aa(lp114
I52
aI18
aI41
aI37
aa(lp115
I28
aI11
aI100
aI9
aa(lp116
I17
aI32
aI52
aI47
aa(lp117
I11
aI69
aI10
aI58
aa(lp118
I25
aI18
aI38
aI67
aa(lp119
I68
aI18
aI17
aI45
aa(lp120
I31
aI39
aI30
aI48
aa(lp121
I25
aI26
aI59
aI38
aa(lp122
I29
aI42
aI53
aI24
aa(lp123
I36
aI17
aI30
aI65
aa(lp124
I36
aI25
aI47
aI40
aa(lp125
I30
aI53
aI19
aI46
aa(lp126
I16
aI46
aI10
aI76
aa(lp127
I0
aI148
aI0
aI0
aa(lp128
I52
aI37
aI26
aI33
aa(lp129
I16
aI101
aI3
aI28
aa(lp130
I63
aI9
aI13
aI63
aa(lp131
I11
aI19
aI71
aI47
aa(lp132
I38
aI52
aI22
aI36
aa(lp133
I22
aI47
aI67
aI12
aa(lp134
I63
aI20
aI38
aI27
aa(lp135
I25
aI15
aI16
aI92
aa(lp136
I16
aI75
aI16
aI41
aa(lp137
I57
aI6
aI68
aI17
aa(lp138
I49
aI22
aI15
aI62
aa(lp139
I29
aI24
aI28
aI67
aa(lp140
I40
aI16
aI26
aI66
aa(lp141
I19
aI98
aI20
aI11
aa(lp142
I6
aI37
aI52
aI53
aa(lp143
I16
aI43
aI21
aI68
aa(lp144
I32
aI32
aI52
aI32
aa(lp145
I66
aI33
aI31
aI18
aa(lp146
I2
aI14
aI31
aI101
aa(lp147
I35
aI46
aI42
aI25
aa(lp148
I36
aI7
aI56
aI49
aa(lp149
I9
aI80
aI35
aI24
aa(lp150
I104
aI0
aI38
aI6
aa(lp151
I63
aI23
aI39
aI23
aa(lp152
I26
aI36
aI14
aI72
aa(lp153
I33
aI23
aI34
aI58
aa(lp154
I2
aI61
aI52
aI33
aa(lp155
I37
aI56
aI46
aI9
aa(lp156
I4
aI32
aI38
aI74
aa(lp157
I15
aI53
aI35
aI45
aa(lp158
I20
aI39
aI66
aI23
aa(lp159
I14
aI33
aI47
aI54
aa(lp160
I19
aI39
aI54
aI36
aa(lp161
I0
aI1
aI58
aI89
aa(lp162
I14
aI92
aI6
aI36
aa(lp163
I46
aI27
aI33
aI42
aa(lp164
I30
aI20
aI66
aI32
aa(lp165
I17
aI36
aI32
aI63
aa(lp166
I60
aI74
aI7
aI7
aa(lp167
I39
aI39
aI24
aI46
aa(lp168
I28
aI21
aI44
aI55
aa(lp169
I26
aI48
aI66
aI8
aa(lp170
I29
aI26
aI51
aI42
aa(lp171
I57
aI24
aI8
aI59
aa(lp172
I48
aI51
aI24
aI25
aa(lp173
I60
aI45
aI14
aI29
aa(lp174
I58
aI44
aI7
aI39
aa(lp175
I55
aI61
aI29
aI3
aa(lp176
I67
aI27
aI17
aI37
aa(lp177
I56
aI17
aI41
aI34
aa(lp178
I26
aI25
aI20
aI77
aa(lp179
I48
aI41
aI51
aI8
aa(lp180
I57
aI10
aI24
aI57
aa(lp181
I25
aI74
aI6
aI43
aa(lp182
I44
aI40
aI21
aI43
aa(lp183
I14
aI43
aI35
aI56
aa(lp184
I48
aI21
aI21
aI58
aa(lp185
I38
aI31
aI40
aI39
aa(lp186
I33
aI32
aI45
aI38
aa(lp187
I0
aI0
aI0
aI148
aa(lp188
I13
aI24
aI19
aI92
aa(lp189
I17
aI42
aI35
aI54
aa(lp190
I33
aI49
aI33
aI33
aa(lp191
I27
aI38
aI44
aI39
aa(lp192
I25
aI37
aI40
aI46
aa(lp193
I12
aI40
aI66
aI30
aa(lp194
I27
aI37
aI32
aI52
aa(lp195
I17
aI45
aI58
aI28
aa(lp196
I19
aI15
aI51
aI63
aa(lp197
I128
aI0
aI2
aI18
aa(lp198
I25
aI60
aI40
aI23
aa(lp199
I25
aI21
aI31
aI71
aa(lp200
I53
aI26
aI52
aI17
aa(lp201
I29
aI59
aI60
aI0
aa(lp202
I26
aI5
aI60
aI57
aa(lp203
I27
aI35
aI27
aI59
aa(lp204
I63
aI32
aI20
aI33
aaa(lp205
(lp206
I12
aI5
aI22
aI9
aa(lp207
I32
aI6
aI10
aI0
aa(lp208
I7
aI18
aI9
aI14
aa(lp209
I14
aI6
aI18
aI10
aa(lp210
I4
aI4
aI24
aI16
aa(lp211
I1
aI21
aI17
aI9
aa(lp212
I9
aI0
aI0
aI39
aa(lp213
I14
aI14
aI7
aI13
aa(lp214
I32
aI0
aI8
aI8
aa(lp215
I17
aI5
aI15
aI11
aa(lp216
I7
aI4
aI36
aI1
aa(lp217
I6
aI7
aI18
aI17
aa(lp218
I18
aI6
aI3
aI21
aa(lp219
I6
aI9
aI13
aI20
aa(lp220
I27
aI6
aI3
aI12
aa(lp221
I9
aI15
aI8
aI16
aa(lp222
I8
aI11
aI22
aI7
aa(lp223
I8
aI0
aI40
aI0
aa(lp224
I10
aI6
aI14
aI18
aa(lp225
I16
aI11
aI11
aI10
aa(lp226
I13
aI15
aI8
aI12
aa(lp227
I34
aI14
aI0
aI0
aa(lp228
I3
aI16
aI8
aI21
aa(lp229
I14
aI21
aI6
aI7
aa(lp230
I4
aI33
aI1
aI10
aa(lp231
I24
aI2
aI3
aI19
aa(lp232
I2
aI2
aI32
aI12
aa(lp233
I5
aI23
aI6
aI14
aa(lp234
I14
aI14
aI19
aI1
aa(lp235
I12
aI7
aI15
aI14
aa(lp236
I11
aI0
aI5
aI32
aa(lp237
I8
aI26
aI8
aI6
aa(lp238
I17
aI3
aI22
aI6
aa(lp239
I19
aI8
aI5
aI16
aa(lp240
I6
aI10
aI5
aI27
aa(lp241
I14
aI7
aI7
aI20
aa(lp242
I10
aI31
aI3
aI4
aa(lp243
I5
aI12
aI16
aI15
aa(lp244
I9
aI13
aI9
aI17
aa(lp245
I12
aI5
aI17
aI14
aa(lp246
I22
aI12
aI9
aI5
aa(lp247
I10
aI3
aI10
aI25
aa(lp248
I10
aI17
aI8
aI13
aa(lp249
I17
aI1
aI21
aI9
aa(lp250
I2
aI20
aI19
aI7
aa(lp251
I20
aI15
aI8
aI5
aa(lp252
I21
aI6
aI12
aI9
aa(lp253
I11
aI10
aI5
aI22
aa(lp254
I15
aI11
aI5
aI17
aa(lp255
I10
aI19
aI8
aI11
aa(lp256
I12
aI25
aI11
aI0
aa(lp257
I1
aI7
aI15
aI25
aa(lp258
I5
aI13
aI17
aI13
aa(lp259
I8
aI12
aI21
aI7
aa(lp260
I9
aI10
aI10
aI19
aa(lp261
I6
aI17
aI18
aI7
aa(lp262
I20
aI13
aI7
aI8
aa(lp263
I5
aI27
aI3
aI13
aa(lp264
I1
aI0
aI0
aI47
aa(lp265
I9
aI9
aI18
aI12
aa(lp266
I0
aI0
aI0
aI48
aa(lp267
I22
aI17
aI3
aI6
aa(lp268
I14
aI11
aI12
aI11
aa(lp269
I6
aI3
aI11
aI28
aa(lp270
I8
aI15
aI18
aI7
aa(lp271
I5
aI10
aI21
aI12
aa(lp272
I18
aI8
aI3
aI19
aa(lp273
I13
aI20
aI6
aI9
aa(lp274
I13
aI11
aI8
aI16
aa(lp275
I21
aI13
aI1
aI13
aa(lp276
I19
aI20
aI6
aI3
aa(lp277
I11
aI0
aI27
aI10
aa(lp278
I13
aI5
aI21
aI9
aa(lp279
I14
aI9
aI9
aI16
aa(lp280
I20
aI17
aI7
aI4
aa(lp281
I1
aI47
aI0
aI0
aa(lp282
I7
aI31
aI0
aI10
aa(lp283
I20
aI10
aI2
aI16
aa(lp284
I3
aI12
aI11
aI22
aa(lp285
I18
aI8
aI7
aI15
aa(lp286
I12
aI11
aI8
aI17
aa(lp287
I7
aI8
aI26
aI7
aa(lp288
I12
aI12
aI11
aI13
aa(lp289
I1
aI5
aI7
aI35
aa(lp290
I7
aI14
aI10
aI17
aa(lp291
I0
aI2
aI46
aI0
aa(lp292
I14
aI9
aI8
aI17
aa(lp293
I6
aI11
aI17
aI14
aa(lp294
I11
aI14
aI14
aI9
aa(lp295
I5
aI13
aI9
aI21
aa(lp296
I2
aI11
aI21
aI14
aa(lp297
I3
aI4
aI15
aI26
aa(lp298
I12
aI16
aI9
aI11
aa(lp299
I14
aI20
aI10
aI4
aa(lp300
I7
aI4
aI13
aI24
aa(lp301
I16
aI8
aI21
aI3
aa(lp302
I6
aI19
aI22
aI1
aa(lp303
I11
aI4
aI14
aI19
aa(lp304
I14
aI13
aI5
aI16
aa(lp305
I18
aI10
aI9
aI11
aaa(lp306
(lp307
I4
aI6
aI15
aI8
aa(lp308
I10
aI10
aI8
aI5
aa(lp309
I4
aI12
aI6
aI11
aa(lp310
I6
aI9
aI12
aI6
aa(lp311
I8
aI4
aI11
aI10
aa(lp312
I1
aI11
aI15
aI6
aa(lp313
I1
aI0
aI30
aI2
aa(lp314
I8
aI12
aI5
aI8
aa(lp315
I17
aI12
aI4
aI0
aa(lp316
I11
aI5
aI9
aI8
aa(lp317
I6
aI3
aI22
aI2
aa(lp318
I5
aI9
aI8
aI11
aa(lp319
I6
aI7
aI2
aI18
aa(lp320
I4
aI7
aI7
aI15
aa(lp321
I10
aI6
aI8
aI9
aa(lp322
I9
aI8
aI6
aI10
aa(lp323
I0
aI0
aI32
aI1
aa(lp324
I5
aI5
aI15
aI8
aa(lp325
I3
aI3
aI6
aI21
aa(lp326
I6
aI8
aI13
aI6
aa(lp327
I7
aI16
aI2
aI8
aa(lp328
I4
aI6
aI5
aI18
aa(lp329
I4
aI8
aI4
aI17
aa(lp330
I0
aI0
aI29
aI4
aa(lp331
I2
aI27
aI0
aI4
aa(lp332
I24
aI1
aI3
aI5
aa(lp333
I2
aI1
aI20
aI10
aa(lp334
I9
aI8
aI3
aI13
aa(lp335
I10
aI3
aI16
aI4
aa(lp336
I14
aI3
aI10
aI6
aa(lp337
I9
aI2
aI5
aI17
aa(lp338
I2
aI14
aI10
aI7
aa(lp339
I2
aI0
aI10
aI21
aa(lp340
I13
aI3
aI3
aI14
aa(lp341
I7
aI6
aI4
aI16
aa(lp342
I6
aI2
aI10
aI15
aa(lp343
I5
aI23
aI2
aI3
aa(lp344
I1
aI7
aI16
aI9
aa(lp345
I1
aI9
aI3
aI20
aa(lp346
I5
aI7
aI9
aI12
aa(lp347
I12
aI8
aI9
aI4
aa(lp348
I8
aI1
aI5
aI19
aa(lp349
I3
aI7
aI15
aI8
aa(lp350
I10
aI2
aI12
aI9
aa(lp351
I17
aI12
aI4
aI0
aa(lp352
I15
aI7
aI8
aI3
aa(lp353
I14
aI6
aI7
aI6
aa(lp354
I5
aI9
aI5
aI14
aa(lp355
I1
aI10
aI3
aI19
aa(lp356
I9
aI13
aI3
aI8
aa(lp357
I10
aI16
aI7
aI0
aa(lp358
I4
aI5
aI12
aI12
aa(lp359
I5
aI10
aI9
aI9
aa(lp360
I6
aI5
aI14
aI8
aa(lp361
I2
aI23
aI0
aI8
aa(lp362
I3
aI5
aI16
aI9
aa(lp363
I10
aI14
aI0
aI9
aa(lp364
I2
aI19
aI0
aI12
aa(lp365
I10
aI9
aI8
aI6
aa(lp366
I0
aI15
aI1
aI17
aa(lp367
I7
aI6
aI5
aI15
aa(lp368
I10
aI20
aI2
aI1
aa(lp369
I14
aI3
aI7
aI9
aa(lp370
I6
aI5
aI9
aI13
aa(lp371
I5
aI10
aI17
aI1
aa(lp372
I5
aI4
aI16
aI8
aa(lp373
I12
aI0
aI3
aI18
aa(lp374
I8
aI16
aI4
aI5
aa(lp375
I7
aI15
aI6
aI5
aa(lp376
I11
aI10
aI2
aI10
aa(lp377
I11
aI10
aI8
aI4
aa(lp378
I16
aI3
aI2
aI12
aa(lp379
I12
aI3
aI11
aI7
aa(lp380
I11
aI5
aI4
aI13
aa(lp381
I10
aI9
aI12
aI2
aa(lp382
I14
aI3
aI6
aI10
aa(lp383
I10
aI15
aI0
aI8
aa(lp384
I9
aI14
aI3
aI7
aa(lp385
I2
aI8
aI8
aI15
aa(lp386
I8
aI3
aI4
aI18
aa(lp387
I7
aI4
aI10
aI12
aa(lp388
I4
aI0
aI22
aI7
aa(lp389
I14
aI10
aI4
aI5
aa(lp390
I5
aI5
aI5
aI18
aa(lp391
I7
aI11
aI5
aI10
aa(lp392
I10
aI8
aI8
aI7
aa(lp393
I7
aI10
aI5
aI11
aa(lp394
I8
aI7
aI12
aI6
aa(lp395
I3
aI12
aI11
aI7
aa(lp396
I4
aI8
aI5
aI16
aa(lp397
I5
aI8
aI10
aI10
aa(lp398
I4
aI4
aI13
aI12
aa(lp399
I8
aI12
aI5
aI8
aa(lp400
I9
aI7
aI9
aI8
aa(lp401
I0
aI3
aI6
aI24
aa(lp402
I11
aI9
aI9
aI4
aa(lp403
I6
aI15
aI11
aI1
aa(lp404
I5
aI3
aI10
aI15
aa(lp405
I3
aI12
aI9
aI9
aa(lp406
I15
aI7
aI8
aI3
aaa(lp407
(lp408
I8
aI6
aI44
aI6
aa(lp409
I20
aI26
aI14
aI4
aa(lp410
I15
aI24
aI9
aI16
aa(lp411
I12
aI16
aI18
aI18
aa(lp412
I4
aI7
aI31
aI22
aa(lp413
I4
aI23
aI28
aI9
aa(lp414
I22
aI21
aI18
aI3
aa(lp415
I17
aI15
aI9
aI23
aa(lp416
I25
aI32
aI6
aI1
aa(lp417
I17
aI14
aI17
aI16
aa(lp418
I15
aI3
aI40
aI6
aa(lp419
I8
aI10
aI30
aI16
aa(lp420
I25
aI7
aI8
aI24
aa(lp421
I8
aI14
aI15
aI27
aa(lp422
I34
aI9
aI10
aI11
aa(lp423
I14
aI17
aI13
aI20
aa(lp424
I13
aI17
aI18
aI16
aa(lp425
I11
aI16
aI30
aI7
aa(lp426
I10
aI5
aI19
aI30
aa(lp427
I16
aI12
aI23
aI13
aa(lp428
I12
aI20
aI14
aI18
aa(lp429
I8
aI22
aI5
aI29
aa(lp430
I8
aI10
aI11
aI35
aa(lp431
I20
aI25
aI7
aI12
aa(lp432
I7
aI41
aI2
aI14
aa(lp433
I27
aI2
aI8
aI27
aa(lp434
I4
aI10
aI31
aI19
aa(lp435
I0
aI29
aI33
aI2
aa(lp436
I9
aI16
aI30
aI9
aa(lp437
I27
aI9
aI15
aI13
aa(lp438
I6
aI0
aI56
aI2
aa(lp439
I5
aI26
aI10
aI23
aa(lp440
I15
aI6
aI31
aI12
aa(lp441
I22
aI9
aI13
aI20
aa(lp442
I14
aI15
aI8
aI27
aa(lp443
I15
aI8
aI15
aI26
aa(lp444
I11
aI41
aI3
aI9
aa(lp445
I2
aI22
aI20
aI20
aa(lp446
I8
aI22
aI7
aI27
aa(lp447
I9
aI9
aI31
aI15
aa(lp448
I22
aI12
aI20
aI10
aa(lp449
I18
aI1
aI16
aI29
aa(lp450
I14
aI15
aI23
aI12
aa(lp451
I19
aI1
aI28
aI16
aa(lp452
I5
aI34
aI16
aI9
aa(lp453
I33
aI12
aI13
aI6
aa(lp454
I32
aI9
aI13
aI10
aa(lp455
I5
aI18
aI8
aI33
aa(lp456
I19
aI8
aI14
aI23
aa(lp457
I12
aI27
aI9
aI16
aa(lp458
I13
aI26
aI24
aI1
aa(lp459
I4
aI6
aI26
aI28
aa(lp460
I9
aI23
aI16
aI16
aa(lp461
I9
aI12
aI33
aI10
aa(lp462
I5
aI12
aI18
aI29
aa(lp463
I6
aI12
aI31
aI15
aa(lp464
I23
aI24
aI7
aI10
aa(lp465
I9
aI42
aI2
aI11
aa(lp466
I8
aI18
aI34
aI4
aa(lp467
I11
aI10
aI31
aI12
aa(lp468
I15
aI15
aI4
aI30
aa(lp469
I29
aI32
aI2
aI1
aa(lp470
I13
aI17
aI11
aI23
aa(lp471
I36
aI27
aI0
aI1
aa(lp472
I19
aI17
aI24
aI4
aa(lp473
I0
aI0
aI1
aI63
aa(lp474
I26
aI15
aI5
aI18
aa(lp475
I16
aI34
aI8
aI6
aa(lp476
I22
aI23
aI8
aI11
aa(lp477
I27
aI17
aI3
aI17
aa(lp478
I21
aI26
aI15
aI2
aa(lp479
I31
aI11
aI3
aI19
aa(lp480
I25
aI7
aI20
aI12
aa(lp481
I16
aI9
aI4
aI35
aa(lp482
I22
aI22
aI18
aI2
aa(lp483
I33
aI5
aI12
aI14
aa(lp484
I17
aI29
aI3
aI15
aa(lp485
I23
aI17
aI8
aI16
aa(lp486
I0
aI41
aI23
aI0
aa(lp487
I9
aI14
aI41
aI0
aa(lp488
I10
aI12
aI25
aI17
aa(lp489
I7
aI30
aI17
aI10
aa(lp490
I18
aI19
aI9
aI18
aa(lp491
I5
aI10
aI10
aI39
aa(lp492
I8
aI15
aI9
aI32
aa(lp493
I16
aI21
aI14
aI13
aa(lp494
I10
aI17
aI14
aI23
aa(lp495
I19
aI11
aI20
aI14
aa(lp496
I8
aI10
aI27
aI19
aa(lp497
I13
aI14
aI14
aI23
aa(lp498
I9
aI15
aI28
aI12
aa(lp499
I0
aI64
aI0
aI0
aa(lp500
I14
aI24
aI12
aI14
aa(lp501
I0
aI27
aI37
aI0
aa(lp502
I8
aI11
aI10
aI35
aa(lp503
I25
aI11
aI22
aI6
aa(lp504
I22
aI18
aI24
aI0
aa(lp505
I6
aI7
aI20
aI31
aa(lp506
I14
aI18
aI14
aI18
aa(lp507
I21
aI15
aI13
aI15
aaa(lp508
(lp509
I12
aI4
aI35
aI8
aa(lp510
I19
aI15
aI19
aI6
aa(lp511
I14
aI20
aI15
aI10
aa(lp512
I19
aI12
aI10
aI18
aa(lp513
I14
aI3
aI27
aI15
aa(lp514
I1
aI24
aI17
aI17
aa(lp515
I13
aI22
aI17
aI7
aa(lp516
I9
aI20
aI11
aI19
aa(lp517
I0
aI20
aI37
aI2
aa(lp518
I26
aI8
aI16
aI9
aa(lp519
I0
aI38
aI0
aI21
aa(lp520
I9
aI12
aI22
aI16
aa(lp521
I15
aI1
aI43
aI0
aa(lp522
I11
aI12
aI14
aI22
aa(lp523
I0
aI4
aI55
aI0
aa(lp524
I16
aI16
aI8
aI19
aa(lp525
I9
aI12
aI18
aI20
aa(lp526
I8
aI12
aI30
aI9
aa(lp527
I11
aI6
aI12
aI30
aa(lp528
I13
aI12
aI22
aI12
aa(lp529
I10
aI22
aI7
aI20
aa(lp530
I0
aI57
aI2
aI0
aa(lp531
I10
aI11
aI6
aI32
aa(lp532
I19
aI27
aI4
aI9
aa(lp533
I9
aI35
aI0
aI15
aa(lp534
I26
aI3
aI8
aI22
aa(lp535
I8
aI6
aI22
aI23
aa(lp536
I17
aI26
aI3
aI13
aa(lp537
I7
aI23
aI24
aI5
aa(lp538
I26
aI7
aI11
aI15
aa(lp539
I9
aI7
aI6
aI37
aa(lp540
I6
aI30
aI8
aI15
aa(lp541
I23
aI5
aI24
aI7
aa(lp542
I18
aI12
aI10
aI19
aa(lp543
I7
aI17
aI9
aI26
aa(lp544
I12
aI6
aI12
aI29
aa(lp545
I9
aI37
aI6
aI7
aa(lp546
I7
aI11
aI21
aI20
aa(lp547
I9
aI16
aI8
aI26
aa(lp548
I11
aI11
aI25
aI12
aa(lp549
I25
aI8
aI14
aI12
aa(lp550
I19
aI3
aI10
aI27
aa(lp551
I9
aI18
aI25
aI7
aa(lp552
I25
aI0
aI18
aI16
aa(lp553
I4
aI31
aI18
aI6
aa(lp554
I21
aI18
aI12
aI8
aa(lp555
I0
aI0
aI0
aI59
aa(lp556
I10
aI16
aI9
aI24
aa(lp557
I12
aI15
aI11
aI21
aa(lp558
I8
aI31
aI10
aI10
aa(lp559
I15
aI27
aI16
aI1
aa(lp560
I4
aI10
aI16
aI29
aa(lp561
I2
aI27
aI15
aI15
aa(lp562
I5
aI9
aI27
aI18
aa(lp563
I3
aI13
aI14
aI29
aa(lp564
I5
aI12
aI20
aI22
aa(lp565
I18
aI23
aI3
aI15
aa(lp566
I7
aI38
aI3
aI11
aa(lp567
I26
aI10
aI11
aI12
aa(lp568
I11
aI9
aI31
aI8
aa(lp569
I12
aI10
aI9
aI28
aa(lp570
I27
aI27
aI2
aI3
aa(lp571
I15
aI16
aI9
aI19
aa(lp572
I7
aI12
aI11
aI29
aa(lp573
I14
aI21
aI20
aI4
aa(lp574
I5
aI8
aI25
aI21
aa(lp575
I9
aI35
aI11
aI4
aa(lp576
I23
aI21
aI10
aI5
aa(lp577
I18
aI15
aI8
aI18
aa(lp578
I25
aI17
aI1
aI16
aa(lp579
I22
aI24
aI10
aI3
aa(lp580
I53
aI0
aI2
aI4
aa(lp581
I13
aI8
aI26
aI12
aa(lp582
I21
aI7
aI7
aI24
aa(lp583
I22
aI16
aI17
aI4
aa(lp584
I26
aI2
aI11
aI20
aa(lp585
I15
aI28
aI3
aI13
aa(lp586
I17
aI10
aI8
aI24
aa(lp587
I3
aI9
aI22
aI25
aa(lp588
I16
aI9
aI6
aI28
aa(lp589
I10
aI12
aI23
aI14
aa(lp590
I10
aI15
aI26
aI8
aa(lp591
I24
aI15
aI4
aI16
aa(lp592
I6
aI9
aI5
aI39
aa(lp593
I9
aI14
aI13
aI23
aa(lp594
I14
aI20
aI9
aI16
aa(lp595
I8
aI22
aI18
aI11
aa(lp596
I8
aI11
aI26
aI14
aa(lp597
I7
aI14
aI23
aI15
aa(lp598
I56
aI2
aI1
aI0
aa(lp599
I4
aI14
aI26
aI15
aa(lp600
I7
aI5
aI22
aI25
aa(lp601
I13
aI22
aI13
aI11
aa(lp602
I11
aI22
aI19
aI7
aa(lp603
I13
aI7
aI16
aI23
aa(lp604
I27
aI14
aI17
aI1
aa(lp605
I15
aI26
aI18
aI0
aa(lp606
I10
aI1
aI22
aI26
aa(lp607
I13
aI17
aI7
aI22
aa(lp608
I17
aI14
aI17
aI11
aaa(lp609
(lp610
I22
aI8
aI66
aI9
aa(lp611
I31
aI31
aI32
aI11
aa(lp612
I10
aI15
aI79
aI1
aa(lp613
I17
aI25
aI40
aI23
aa(lp614
I16
aI10
aI47
aI32
aa(lp615
I8
aI34
aI43
aI20
aa(lp616
I30
aI27
aI43
aI5
aa(lp617
I0
aI22
aI0
aI83
aa(lp618
I31
aI6
aI18
aI50
aa(lp619
I35
aI14
aI34
aI22
aa(lp620
I18
aI7
aI76
aI4
aa(lp621
I5
aI17
aI43
aI40
aa(lp622
I27
aI12
aI10
aI56
aa(lp623
I8
aI31
aI16
aI50
aa(lp624
I49
aI14
aI10
aI32
aa(lp625
I35
aI29
aI13
aI28
aa(lp626
I13
aI20
aI49
aI23
aa(lp627
I15
aI26
aI41
aI23
aa(lp628
I17
aI14
aI29
aI45
aa(lp629
I23
aI20
aI37
aI25
aa(lp630
I21
aI39
aI15
aI30
aa(lp631
I16
aI26
aI9
aI54
aa(lp632
I16
aI25
aI14
aI50
aa(lp633
I29
aI40
aI10
aI26
aa(lp634
I14
aI64
aI4
aI23
aa(lp635
I54
aI7
aI9
aI35
aa(lp636
I11
aI11
aI36
aI47
aa(lp637
I31
aI33
aI16
aI25
aa(lp638
I21
aI28
aI45
aI11
aa(lp639
I0
aI0
aI105
aI0
aa(lp640
I11
aI9
aI21
aI64
aa(lp641
I9
aI45
aI14
aI37
aa(lp642
I41
aI5
aI42
aI17
aa(lp643
I38
aI16
aI8
aI43
aa(lp644
I17
aI13
aI27
aI48
aa(lp645
I21
aI11
aI26
aI47
aa(lp646
I23
aI55
aI16
aI11
aa(lp647
I0
aI46
aI2
aI57
aa(lp648
I8
aI20
aI17
aI60
aa(lp649
I21
aI19
aI47
aI18
aa(lp650
I42
aI21
aI28
aI14
aa(lp651
I30
aI10
aI21
aI44
aa(lp652
I20
aI38
aI29
aI18
aa(lp653
I33
aI7
aI42
aI23
aa(lp654
I5
aI53
aI31
aI16
aa(lp655
I38
aI25
aI24
aI18
aa(lp656
I51
aI18
aI13
aI23
aa(lp657
I16
aI30
aI12
aI47
aa(lp658
I18
aI22
aI21
aI44
aa(lp659
I13
aI52
aI14
aI26
aa(lp660
I24
aI46
aI33
aI2
aa(lp661
I3
aI16
aI43
aI43
aa(lp662
I5
aI31
aI31
aI38
aa(lp663
I25
aI21
aI41
aI18
aa(lp664
I14
aI22
aI28
aI41
aa(lp665
I21
aI17
aI44
aI23
aa(lp666
I43
aI32
aI9
aI21
aa(lp667
I18
aI65
aI8
aI14
aa(lp668
I32
aI27
aI19
aI27
aa(lp669
I21
aI17
aI42
aI25
aa(lp670
I13
aI18
aI19
aI55
aa(lp671
I42
aI50
aI3
aI10
aa(lp672
I28
aI27
aI26
aI24
aa(lp673
I23
aI10
aI25
aI47
aa(lp674
I24
aI35
aI31
aI15
aa(lp675
I21
aI27
aI38
aI19
aa(lp676
I32
aI18
aI11
aI44
aa(lp677
I31
aI30
aI23
aI21
aa(lp678
I32
aI37
aI11
aI25
aa(lp679
I47
aI24
aI3
aI31
aa(lp680
I29
aI53
aI20
aI3
aa(lp681
I43
aI25
aI12
aI25
aa(lp682
I44
aI9
aI29
aI23
aa(lp683
I19
aI11
aI17
aI58
aa(lp684
I37
aI31
aI30
aI7
aa(lp685
I43
aI5
aI22
aI35
aa(lp686
I22
aI42
aI11
aI30
aa(lp687
I36
aI29
aI11
aI29
aa(lp688
I9
aI21
aI25
aI50
aa(lp689
I36
aI17
aI11
aI41
aa(lp690
I29
aI22
aI36
aI18
aa(lp691
I19
aI16
aI52
aI18
aa(lp692
I20
aI29
aI23
aI33
aa(lp693
I9
aI9
aI13
aI74
aa(lp694
I7
aI36
aI33
aI29
aa(lp695
I44
aI5
aI12
aI44
aa(lp696
I15
aI36
aI27
aI27
aa(lp697
I18
aI29
aI38
aI20
aa(lp698
I12
aI28
aI45
aI20
aa(lp699
I23
aI21
aI23
aI38
aa(lp700
I0
aI3
aI1
aI101
aa(lp701
I11
aI12
aI38
aI44
aa(lp702
I38
aI33
aI16
aI18
aa(lp703
I31
aI29
aI32
aI13
aa(lp704
I17
aI15
aI21
aI52
aa(lp705
I26
aI52
aI27
aI0
aa(lp706
I22
aI38
aI45
aI0
aa(lp707
I0
aI29
aI75
aI1
aa(lp708
I19
aI27
aI18
aI41
aa(lp709
I43
aI26
aI21
aI15
aaa(lp710
(lp711
I56
aI34
aI144
aI25
aa(lp712
I96
aI85
aI43
aI35
aa(lp713
I64
aI78
aI63
aI54
aa(lp714
I55
aI60
aI80
aI64
aa(lp715
I46
aI24
aI109
aI80
aa(lp716
I14
aI99
aI96
aI50
aa(lp717
I67
aI86
aI84
aI22
aa(lp718
I38
aI81
aI48
aI92
aa(lp719
I87
aI128
aI37
aI7
aa(lp720
I96
aI38
aI77
aI48
aa(lp721
I43
aI15
aI182
aI19
aa(lp722
I19
aI48
aI94
aI98
aa(lp723
I67
aI41
aI32
aI119
aa(lp724
I0
aI0
aI259
aI0
aa(lp725
I136
aI110
aI0
aI13
aa(lp726
I59
aI70
aI42
aI88
aa(lp727
I33
aI59
aI106
aI61
aa(lp728
I31
aI51
aI134
aI43
aa(lp729
I60
aI19
aI56
aI124
aa(lp730
I32
aI86
aI4
aI137
aa(lp731
I55
aI87
aI44
aI73
aa(lp732
I49
aI78
aI14
aI118
aa(lp733
I34
aI60
aI31
aI134
aa(lp734
I86
aI101
aI28
aI44
aa(lp735
I44
aI200
aI11
aI4
aa(lp736
I108
aI8
aI27
aI116
aa(lp737
I29
aI32
aI116
aI82
aa(lp738
I44
aI104
aI26
aI85
aa(lp739
I43
aI71
aI111
aI34
aa(lp740
I95
aI27
aI82
aI55
aa(lp741
I37
aI28
aI38
aI156
aa(lp742
I20
aI120
aI42
aI77
aa(lp743
I81
aI12
aI115
aI51
aa(lp744
I85
aI31
aI24
aI119
aa(lp745
I43
aI41
aI31
aI144
aa(lp746
I72
aI30
aI41
aI116
aa(lp747
I37
aI178
aI26
aI18
aa(lp748
I24
aI61
aI95
aI79
aa(lp749
I39
aI64
aI32
aI124
aa(lp750
I49
aI41
aI114
aI55
aa(lp751
I98
aI51
aI58
aI52
aa(lp752
I72
aI19
aI49
aI119
aa(lp753
I35
aI79
aI91
aI54
aa(lp754
I64
aI11
aI108
aI76
aa(lp755
I18
aI129
aI69
aI43
aa(lp756
I106
aI55
aI57
aI41
aa(lp757
I117
aI52
aI59
aI31
aa(lp758
I48
aI70
aI49
aI92
aa(lp759
I48
aI48
aI61
aI102
aa(lp760
I39
aI130
aI39
aI51
aa(lp761
I70
aI114
aI70
aI5
aa(lp762
I14
aI38
aI72
aI135
aa(lp763
I38
aI87
aI51
aI83
aa(lp764
I37
aI38
aI129
aI55
aa(lp765
I27
aI61
aI83
aI88
aa(lp766
I35
aI65
aI99
aI60
aa(lp767
I103
aI86
aI25
aI45
aa(lp768
I30
aI158
aI11
aI60
aa(lp769
I76
aI58
aI52
aI73
aa(lp770
I52
aI46
aI108
aI53
aa(lp771
I46
aI57
aI49
aI107
aa(lp772
I104
aI135
aI5
aI15
aa(lp773
I77
aI59
aI61
aI62
aa(lp774
I42
aI32
aI76
aI109
aa(lp775
I0
aI0
aI0
aI259
aa(lp776
I47
aI60
aI83
aI69
aa(lp777
I91
aI44
aI14
aI110
aa(lp778
I68
aI85
aI52
aI54
aa(lp779
I78
aI73
aI36
aI72
aa(lp780
I257
aI2
aI0
aI0
aa(lp781
I82
aI117
aI54
aI6
aa(lp782
I116
aI57
aI27
aI59
aa(lp783
I0
aI0
aI259
aI0
aa(lp784
I68
aI41
aI31
aI119
aa(lp785
I84
aI78
aI84
aI13
aa(lp786
I0
aI259
aI0
aI0
aa(lp787
I47
aI125
aI14
aI73
aa(lp788
I79
aI82
aI31
aI67
aa(lp789
I18
aI56
aI69
aI116
aa(lp790
I96
aI22
aI31
aI110
aa(lp791
I53
aI60
aI83
aI63
aa(lp792
I41
aI59
aI104
aI55
aa(lp793
I65
aI69
aI53
aI72
aa(lp794
I24
aI36
aI46
aI153
aa(lp795
I0
aI233
aI26
aI0
aa(lp796
I72
aI81
aI50
aI56
aa(lp797
I52
aI82
aI64
aI61
aa(lp798
I38
aI57
aI80
aI84
aa(lp799
I39
aI66
aI103
aI51
aa(lp800
I52
aI60
aI59
aI88
aa(lp801
I259
aI0
aI0
aI0
aa(lp802
I36
aI26
aI90
aI107
aa(lp803
I69
aI97
aI33
aI60
aa(lp804
I56
aI90
aI60
aI53
aa(lp805
I56
aI39
aI39
aI125
aa(lp806
I93
aI53
aI101
aI12
aa(lp807
I57
aI88
aI112
aI2
aa(lp808
I45
aI18
aI76
aI120
aa(lp809
I56
aI66
aI45
aI92
aa(lp810
I100
aI51
aI57
aI51
aaa(lp811
(lp812
I20
aI10
aI55
aI10
aa(lp813
I30
aI33
aI23
aI9
aa(lp814
I17
aI33
aI25
aI20
aa(lp815
I24
aI17
aI35
aI19
aa(lp816
I17
aI9
aI46
aI23
aa(lp817
I2
aI32
aI45
aI16
aa(lp818
I27
aI21
aI41
aI6
aa(lp819
I1
aI0
aI94
aI0
aa(lp820
I32
aI52
aI10
aI1
aa(lp821
I32
aI15
aI26
aI22
aa(lp822
I24
aI3
aI65
aI3
aa(lp823
I6
aI21
aI33
aI35
aa(lp824
I25
aI10
aI14
aI46
aa(lp825
I52
aI22
aI0
aI21
aa(lp826
I39
aI12
aI11
aI33
aa(lp827
I19
aI27
aI20
aI29
aa(lp828
I16
aI16
aI42
aI21
aa(lp829
I12
aI26
aI38
aI19
aa(lp830
I22
aI10
aI16
aI47
aa(lp831
I21
aI15
aI28
aI31
aa(lp832
I25
aI25
aI15
aI30
aa(lp833
I14
aI28
aI7
aI46
aa(lp834
I0
aI6
aI79
aI10
aa(lp835
I24
aI35
aI9
aI27
aa(lp836
I7
aI65
aI2
aI21
aa(lp837
I42
aI3
aI10
aI40
aa(lp838
I10
aI11
aI39
aI35
aa(lp839
I22
aI32
aI15
aI26
aa(lp840
I11
aI26
aI48
aI10
aa(lp841
I31
aI6
aI25
aI33
aa(lp842
I15
aI12
aI13
aI55
aa(lp843
I12
aI48
aI6
aI29
aa(lp844
I35
aI6
aI39
aI15
aa(lp845
I30
aI20
aI10
aI35
aa(lp846
I15
aI14
aI20
aI46
aa(lp847
I26
aI12
aI18
aI39
aa(lp848
I18
aI57
aI12
aI8
aa(lp849
I27
aI68
aI0
aI0
aa(lp850
I11
aI25
aI17
aI42
aa(lp851
I15
aI15
aI40
aI25
aa(lp852
I38
aI15
aI30
aI12
aa(lp853
I23
aI3
aI12
aI57
aa(lp854
I14
aI33
aI27
aI21
aa(lp855
I23
aI6
aI34
aI32
aa(lp856
I13
aI23
aI13
aI46
aa(lp857
I26
aI20
aI30
aI19
aa(lp858
I38
aI18
aI27
aI12
aa(lp859
I20
aI20
aI12
aI43
aa(lp860
I19
aI13
aI21
aI42
aa(lp861
I14
aI43
aI15
aI23
aa(lp862
I23
aI39
aI31
aI2
aa(lp863
I5
aI22
aI24
aI44
aa(lp864
I13
aI37
aI23
aI22
aa(lp865
I16
aI15
aI43
aI21
aa(lp866
I9
aI20
aI26
aI40
aa(lp867
I19
aI18
aI37
aI21
aa(lp868
I32
aI29
aI7
aI27
aa(lp869
I10
aI61
aI2
aI22
aa(lp870
I26
aI24
aI15
aI30
aa(lp871
I19
aI18
aI45
aI13
aa(lp872
I0
aI1
aI0
aI94
aa(lp873
I36
aI47
aI1
aI11
aa(lp874
I30
aI27
aI14
aI24
aa(lp875
I19
aI6
aI30
aI40
aa(lp876
I39
aI11
aI45
aI0
aa(lp877
I23
aI18
aI24
aI30
aa(lp878
I36
aI12
aI10
aI37
aa(lp879
I24
aI27
aI25
aI19
aa(lp880
I32
aI21
aI15
aI27
aa(lp881
I40
aI25
aI3
aI27
aa(lp882
I33
aI34
aI24
aI4
aa(lp883
I38
aI17
aI7
aI33
aa(lp884
I37
aI15
aI28
aI15
aa(lp885
I18
aI8
aI11
aI58
aa(lp886
I28
aI30
aI31
aI6
aa(lp887
I34
aI8
aI16
aI37
aa(lp888
I20
aI46
aI6
aI23
aa(lp889
I27
aI23
aI14
aI31
aa(lp890
I9
aI21
aI25
aI40
aa(lp891
I33
aI12
aI17
aI33
aa(lp892
I14
aI26
aI29
aI26
aa(lp893
I10
aI21
aI39
aI25
aa(lp894
I24
aI34
aI13
aI24
aa(lp895
I12
aI7
aI17
aI59
aa(lp896
I6
aI15
aI67
aI7
aa(lp897
I27
aI27
aI23
aI18
aa(lp898
I19
aI31
aI25
aI20
aa(lp899
I11
aI26
aI34
aI24
aa(lp900
I17
aI16
aI44
aI18
aa(lp901
I19
aI23
aI23
aI30
aa(lp902
I9
aI21
aI41
aI24
aa(lp903
I12
aI13
aI27
aI43
aa(lp904
I25
aI36
aI10
aI24
aa(lp905
I79
aI16
aI0
aI0
aa(lp906
I23
aI17
aI13
aI42
aa(lp907
I42
aI14
aI33
aI6
aa(lp908
I19
aI35
aI41
aI0
aa(lp909
I19
aI5
aI29
aI42
aa(lp910
I15
aI26
aI12
aI42
aa(lp911
I33
aI49
aI13
aI0
aaa(lp912
(lp913
I7
aI7
aI41
aI9
aa(lp914
I31
aI20
aI8
aI5
aa(lp915
I13
aI20
aI12
aI19
aa(lp916
I15
aI12
aI20
aI17
aa(lp917
I7
aI1
aI32
aI24
aa(lp918
I1
aI33
aI16
aI14
aa(lp919
I13
aI28
aI18
aI5
aa(lp920
I13
aI21
aI16
aI14
aa(lp921
I31
aI26
aI7
aI0
aa(lp922
I29
aI11
aI15
aI9
aa(lp923
I12
aI4
aI44
aI4
aa(lp924
I8
aI9
aI23
aI24
aa(lp925
I17
aI16
aI6
aI25
aa(lp926
I12
aI10
aI11
aI31
aa(lp927
I63
aI1
aI0
aI0
aa(lp928
I16
aI16
aI4
aI28
aa(lp929
I2
aI19
aI25
aI18
aa(lp930
I10
aI13
aI29
aI12
aa(lp931
I16
aI3
aI12
aI33
aa(lp932
I9
aI9
aI28
aI18
aa(lp933
I19
aI23
aI4
aI18
aa(lp934
I9
aI18
aI1
aI36
aa(lp935
I13
aI11
aI12
aI28
aa(lp936
I17
aI19
aI12
aI16
aa(lp937
I4
aI47
aI0
aI13
aa(lp938
I24
aI3
aI6
aI31
aa(lp939
I5
aI5
aI33
aI21
aa(lp940
I17
aI20
aI4
aI23
aa(lp941
I10
aI23
aI26
aI5
aa(lp942
I21
aI8
aI27
aI8
aa(lp943
I9
aI9
aI8
aI38
aa(lp944
I5
aI31
aI10
aI18
aa(lp945
I17
aI1
aI36
aI10
aa(lp946
I19
aI10
aI9
aI26
aa(lp947
I7
aI14
aI9
aI34
aa(lp948
I11
aI7
aI9
aI37
aa(lp949
I16
aI32
aI7
aI9
aa(lp950
I8
aI12
aI18
aI26
aa(lp951
I0
aI30
aI12
aI22
aa(lp952
I8
aI16
aI28
aI12
aa(lp953
I27
aI15
aI14
aI8
aa(lp954
I19
aI5
aI8
aI32
aa(lp955
I10
aI27
aI16
aI11
aa(lp956
I18
aI3
aI28
aI15
aa(lp957
I0
aI1
aI8
aI55
aa(lp958
I27
aI13
aI12
aI12
aa(lp959
I27
aI13
aI10
aI14
aa(lp960
I15
aI12
aI7
aI30
aa(lp961
I12
aI14
aI15
aI23
aa(lp962
I9
aI37
aI12
aI6
aa(lp963
I13
aI30
aI18
aI3
aa(lp964
I9
aI6
aI26
aI23
aa(lp965
I8
aI22
aI15
aI19
aa(lp966
I11
aI11
aI32
aI10
aa(lp967
I3
aI10
aI14
aI37
aa(lp968
I17
aI18
aI14
aI15
aa(lp969
I21
aI22
aI3
aI18
aa(lp970
I2
aI46
aI15
aI1
aa(lp971
I20
aI18
aI14
aI12
aa(lp972
I11
aI15
aI25
aI13
aa(lp973
I11
aI11
aI17
aI25
aa(lp974
I28
aI27
aI2
aI7
aa(lp975
I19
aI14
aI16
aI15
aa(lp976
I13
aI8
aI17
aI26
aa(lp977
I9
aI15
aI31
aI9
aa(lp978
I64
aI0
aI0
aI0
aa(lp979
I23
aI8
aI5
aI28
aa(lp980
I22
aI21
aI10
aI11
aa(lp981
I22
aI19
aI7
aI16
aa(lp982
I10
aI3
aI51
aI0
aa(lp983
I16
aI34
aI14
aI0
aa(lp984
I1
aI0
aI55
aI8
aa(lp985
I22
aI4
aI24
aI14
aa(lp986
I15
aI13
aI10
aI26
aa(lp987
I14
aI17
aI29
aI4
aa(lp988
I18
aI5
aI11
aI30
aa(lp989
I15
aI29
aI2
aI18
aa(lp990
I30
aI13
aI5
aI16
aa(lp991
I5
aI12
aI19
aI28
aa(lp992
I21
aI16
aI9
aI18
aa(lp993
I6
aI27
aI9
aI22
aa(lp994
I0
aI64
aI0
aI0
aa(lp995
I14
aI26
aI12
aI12
aa(lp996
I8
aI11
aI12
aI33
aa(lp997
I7
aI19
aI15
aI23
aa(lp998
I16
aI25
aI12
aI11
aa(lp999
I9
aI16
aI18
aI21
aa(lp1000
I11
aI18
aI15
aI20
aa(lp1001
I8
aI20
aI25
aI11
aa(lp1002
I17
aI9
aI14
aI24
aa(lp1003
I3
aI14
aI29
aI18
aa(lp1004
I0
aI0
aI64
aI0
aa(lp1005
I14
aI24
aI10
aI16
aa(lp1006
I12
aI24
aI21
aI7
aa(lp1007
I14
aI13
aI12
aI25
aa(lp1008
I22
aI11
aI26
aI5
aa(lp1009
I15
aI21
aI26
aI2
aa(lp1010
I10
aI3
aI14
aI37
aa(lp1011
I13
aI21
aI9
aI21
aa(lp1012
I26
aI13
aI14
aI11
aaasS'posCount'
p1013
(lp1014
I51
aI50
aI59
aI56
aI62
aI57
aI57
aI50
aI52
aI59
asS'features'
p1015
I100
sS'tu'
p1016
I0
sS'pos'
p1017
(lp1018
(lp1019
I0
aI1
aI2
aI3
aI7
aI8
aI10
aI15
aI17
aI18
aI19
aI20
aI22
aI24
aI27
aI30
aI31
aI37
aI38
aI39
aI45
aI46
aI47
aI48
aI49
aI50
aI51
aI52
aI54
aI57
aI58
aI59
aI63
aI64
aI65
aI66
aI68
aI69
aI71
aI73
aI74
aI76
aI81
aI82
aI83
aI85
aI91
aI93
aI95
aI96
aI98
aa(lp1020
I2
aI3
aI7
aI8
aI11
aI12
aI13
aI16
aI17
aI18
aI19
aI22
aI23
aI26
aI29
aI34
aI36
aI37
aI39
aI40
aI41
aI42
aI43
aI45
aI49
aI50
aI51
aI53
aI56
aI58
aI60
aI62
aI64
aI68
aI70
aI72
aI73
aI75
aI76
aI78
aI81
aI82
aI83
aI86
aI88
aI90
aI92
aI94
aI97
aI99
aa(lp1021
I0
aI1
aI3
aI4
aI6
aI8
aI11
aI12
aI14
aI17
aI18
aI19
aI20
aI21
aI22
aI26
aI27
aI28
aI29
aI30
aI31
aI38
aI39
aI40
aI42
aI44
aI45
aI48
aI52
aI54
aI55
aI58
aI60
aI61
aI63
aI64
aI65
aI67
aI70
aI71
aI72
aI73
aI74
aI75
aI76
aI77
aI80
aI81
aI82
aI83
aI85
aI86
aI88
aI89
aI91
aI93
aI94
aI96
aI98
aa(lp1022
I0
aI6
aI8
aI11
aI12
aI14
aI16
aI18
aI20
aI21
aI23
aI25
aI26
aI27
aI28
aI30
aI31
aI32
aI35
aI37
aI38
aI39
aI42
aI44
aI48
aI49
aI51
aI54
aI55
aI56
aI57
aI59
aI62
aI64
aI65
aI66
aI67
aI68
aI70
aI71
aI77
aI79
aI80
aI82
aI84
aI86
aI87
aI88
aI89
aI90
aI93
aI94
aI95
aI96
aI98
aI99
aa(lp1023
I0
aI1
aI2
aI4
aI6
aI7
aI9
aI10
aI11
aI12
aI14
aI16
aI17
aI18
aI20
aI22
aI26
aI27
aI28
aI29
aI30
aI31
aI32
aI33
aI34
aI36
aI37
aI41
aI42
aI43
aI45
aI47
aI50
aI51
aI53
aI55
aI58
aI60
aI62
aI63
aI65
aI66
aI67
aI68
aI71
aI73
aI75
aI78
aI79
aI80
aI81
aI84
aI86
aI87
aI88
aI90
aI91
aI93
aI94
aI96
aI97
aI98
aa(lp1024
I1
aI2
aI3
aI5
aI6
aI7
aI8
aI9
aI10
aI11
aI12
aI14
aI16
aI21
aI24
aI27
aI29
aI33
aI34
aI40
aI42
aI43
aI45
aI46
aI48
aI51
aI52
aI53
aI54
aI55
aI56
aI58
aI59
aI62
aI63
aI65
aI66
aI67
aI71
aI72
aI73
aI77
aI78
aI79
aI80
aI81
aI82
aI83
aI85
aI86
aI87
aI89
aI92
aI94
aI95
aI97
aI99
aa(lp1025
I1
aI2
aI3
aI5
aI7
aI8
aI12
aI13
aI15
aI17
aI18
aI23
aI24
aI25
aI26
aI28
aI29
aI30
aI31
aI34
aI35
aI36
aI37
aI38
aI42
aI46
aI48
aI52
aI55
aI57
aI60
aI61
aI63
aI64
aI65
aI66
aI67
aI68
aI70
aI72
aI73
aI76
aI80
aI81
aI82
aI83
aI84
aI85
aI86
aI87
aI90
aI92
aI93
aI94
aI95
aI97
aI99
aa(lp1026
I0
aI1
aI2
aI6
aI7
aI8
aI9
aI13
aI14
aI16
aI19
aI20
aI21
aI24
aI27
aI28
aI29
aI31
aI32
aI33
aI36
aI38
aI40
aI43
aI46
aI47
aI48
aI51
aI52
aI53
aI54
aI58
aI61
aI64
aI67
aI69
aI70
aI72
aI75
aI76
aI77
aI79
aI81
aI82
aI84
aI87
aI90
aI93
aI95
aI96
aa(lp1027
I2
aI3
aI5
aI6
aI7
aI10
aI13
aI17
aI19
aI20
aI22
aI23
aI28
aI29
aI31
aI34
aI37
aI41
aI42
aI43
aI44
aI45
aI46
aI51
aI53
aI55
aI56
aI58
aI59
aI60
aI61
aI62
aI63
aI64
aI65
aI66
aI67
aI71
aI72
aI73
aI75
aI80
aI81
aI83
aI84
aI87
aI88
aI91
aI93
aI95
aI98
aI99
aa(lp1028
I0
aI1
aI4
aI5
aI6
aI7
aI8
aI9
aI11
aI12
aI14
aI15
aI16
aI19
aI20
aI21
aI22
aI23
aI27
aI29
aI32
aI34
aI35
aI36
aI37
aI38
aI39
aI42
aI44
aI46
aI48
aI49
aI50
aI51
aI53
aI54
aI55
aI56
aI57
aI60
aI61
aI64
aI65
aI69
aI70
aI71
aI74
aI75
aI77
aI79
aI80
aI81
aI82
aI86
aI89
aI91
aI94
aI96
aI97
aasS'n'
p1029
I1000
sS'featureValues'
p1030
I4
sS'fnoise'
p1031
(lp1032
I407
aI276
aI145
aI420
aI824
aI677
aI378
aI81
aI159
aI554
aI657
aI584
aI479
aI393
aI473
aI706
aI373
aI415
aI477
aI261
aI312
aI537
aI456
aI555
aI452
aI862
aI602
aI348
aI396
aI158
aI625
aI271
aI580
aI618
aI465
aI798
aI360
aI366
aI366
aI582
aI486
aI693
aI384
aI375
aI760
aI461
aI293
aI552
aI307
aI630
aI599
aI153
aI404
aI311
aI412
aI532
aI601
aI673
aI202
aI688
aI476
aI429
aI601
aI504
aI123
aI407
aI519
aI337
aI525
aI552
aI343
aI512
aI286
aI356
aI763
aI322
aI315
aI537
aI729
aI521
aI532
aI33
aI159
aI420
aI444
aI663
aI479
aI385
aI612
aI796
aI391
aI604
aI688
aI271
aI479
aI324
aI407
aI560
aI635
aI560
asS't'
p1033
(lp1034
I125
aI148
aI48
aI33
aI64
aI59
aI105
aI259
aI95
aI64
asS'alpha'
p1035
F1.0
sS'lambda'
p1036
F1.0
sS'arch'
p1037
I10
sS'fvNoise'
p1038
(lp1039
(lp1040
I88
aI31
aI247
aI41
aa(lp1041
I90
aI93
aI62
aI31
aa(lp1042
I24
aI50
aI27
aI44
aa(lp1043
I88
aI97
aI130
aI105
aa(lp1044
I158
aI71
aI357
aI238
aa(lp1045
I34
aI263
aI254
aI126
aa(lp1046
I99
aI112
aI148
aI19
aa(lp1047
I22
aI26
aI12
aI21
aa(lp1048
I57
aI84
aI16
aI2
aa(lp1049
I188
aI74
aI167
aI125
aa(lp1050
I114
aI44
aI460
aI39
aa(lp1051
I37
aI107
aI217
aI223
aa(lp1052
I128
aI70
aI61
aI220
aa(lp1053
I64
aI73
aI85
aI171
aa(lp1054
I214
aI61
aI54
aI144
aa(lp1055
I157
aI192
aI127
aI230
aa(lp1056
I56
aI74
aI166
aI77
aa(lp1057
I54
aI81
aI208
aI72
aa(lp1058
I109
aI38
aI96
aI234
aa(lp1059
I58
aI52
aI95
aI56
aa(lp1060
I61
aI114
aI41
aI96
aa(lp1061
I74
aI156
aI40
aI267
aa(lp1062
I64
aI104
aI55
aI233
aa(lp1063
I180
aI219
aI61
aI95
aa(lp1064
I40
aI314
aI8
aI90
aa(lp1065
I366
aI37
aI86
aI373
aa(lp1066
I65
aI65
aI268
aI204
aa(lp1067
I91
aI117
aI53
aI87
aa(lp1068
I56
aI134
aI171
aI35
aa(lp1069
I67
aI11
aI49
aI31
aa(lp1070
I95
aI71
aI81
aI378
aa(lp1071
I27
aI136
aI34
aI74
aa(lp1072
I220
aI30
aI250
aI80
aa(lp1073
I207
aI103
aI63
aI245
aa(lp1074
I77
aI75
aI51
aI262
aa(lp1075
I211
aI98
aI144
aI345
aa(lp1076
I65
aI225
aI36
aI34
aa(lp1077
I36
aI84
aI132
aI114
aa(lp1078
I44
aI106
aI53
aI163
aa(lp1079
I105
aI95
aI257
aI125
aa(lp1080
I191
aI94
aI134
aI67
aa(lp1081
I189
aI50
aI126
aI328
aa(lp1082
I50
aI118
aI141
aI75
aa(lp1083
I117
aI21
aI155
aI82
aa(lp1084
I47
aI390
aI208
aI115
aa(lp1085
I186
aI100
aI101
aI74
aa(lp1086
I130
aI44
aI71
aI48
aa(lp1087
I103
aI133
aI64
aI252
aa(lp1088
I71
aI44
aI69
aI123
aa(lp1089
I96
aI302
aI95
aI137
aa(lp1090
I154
aI267
aI168
aI10
aa(lp1091
I4
aI23
aI58
aI68
aa(lp1092
I50
aI145
aI98
aI111
aa(lp1093
I68
aI65
aI124
aI54
aa(lp1094
I42
aI87
aI119
aI164
aa(lp1095
I71
aI131
aI198
aI132
aa(lp1096
I239
aI194
aI62
aI106
aa(lp1097
I75
aI418
aI27
aI153
aa(lp1098
I62
aI54
aI41
aI45
aa(lp1099
I134
aI117
aI290
aI147
aa(lp1100
I87
aI97
aI88
aI204
aa(lp1101
I178
aI212
aI19
aI20
aa(lp1102
I181
aI141
aI142
aI137
aa(lp1103
I89
aI66
aI146
aI203
aa(lp1104
I33
aI38
aI44
aI8
aa(lp1105
I76
aI86
aI134
aI111
aa(lp1106
I189
aI84
aI30
aI216
aa(lp1107
I113
aI112
aI58
aI54
aa(lp1108
I163
aI139
aI74
aI149
aa(lp1109
I229
aI150
aI20
aI153
aa(lp1110
I119
aI132
aI77
aI15
aa(lp1111
I226
aI109
aI56
aI121
aa(lp1112
I106
aI28
aI99
aI53
aa(lp1113
I94
aI59
aI45
aI158
aa(lp1114
I251
aI227
aI243
aI42
aa(lp1115
I141
aI17
aI59
aI105
aa(lp1116
I77
aI147
aI14
aI77
aa(lp1117
I170
aI143
aI74
aI150
aa(lp1118
I54
aI157
aI185
aI333
aa(lp1119
I175
aI76
aI72
aI198
aa(lp1120
I121
aI122
aI159
aI130
aa(lp1121
I4
aI0
aI22
aI7
aa(lp1122
I42
aI53
aI22
aI42
aa(lp1123
I42
aI62
aI73
aI243
aa(lp1124
I52
aI120
aI108
aI164
aa(lp1125
I174
aI211
aI140
aI138
aa(lp1126
I99
aI152
aI114
aI114
aa(lp1127
I67
aI96
aI107
aI115
aa(lp1128
I82
aI161
aI253
aI116
aa(lp1129
I161
aI181
aI182
aI272
aa(lp1130
I28
aI88
aI167
aI108
aa(lp1131
I77
aI62
aI214
aI251
aa(lp1132
I177
aI253
aI96
aI162
aa(lp1133
I48
aI106
aI80
aI37
aa(lp1134
I102
aI74
aI70
aI233
aa(lp1135
I116
aI56
aI121
aI31
aa(lp1136
I85
aI158
aI164
aI0
aa(lp1137
I107
aI38
aI160
aI255
aa(lp1138
I128
aI166
aI106
aI235
aa(lp1139
I212
aI111
aI120
aI117
aas.