(dp0
S'count'
p1
(lp2
(lp3
(lp4
I12
aI4
aI35
aI8
aa(lp5
I19
aI15
aI19
aI6
aa(lp6
I14
aI20
aI15
aI10
aa(lp7
I19
aI12
aI10
aI18
aa(lp8
I14
aI3
aI27
aI15
aa(lp9
I1
aI24
aI17
aI17
aa(lp10
I13
aI22
aI17
aI7
aa(lp11
I9
aI20
aI11
aI19
aa(lp12
I0
aI20
aI37
aI2
aa(lp13
I26
aI8
aI16
aI9
aa(lp14
I0
aI38
aI0
aI21
aa(lp15
I9
aI12
aI22
aI16
aa(lp16
I15
aI1
aI43
aI0
aa(lp17
I11
aI12
aI14
aI22
aa(lp18
I0
aI4
aI55
aI0
aa(lp19
I16
aI16
aI8
aI19
aa(lp20
I9
aI12
aI18
aI20
aa(lp21
I8
aI12
aI30
aI9
aa(lp22
I11
aI6
aI12
aI30
aa(lp23
I13
aI12
aI22
aI12
aa(lp24
I10
aI22
aI7
aI20
aa(lp25
I0
aI57
aI2
aI0
aa(lp26
I10
aI11
aI6
aI32
aa(lp27
I19
aI27
aI4
aI9
aa(lp28
I9
aI35
aI0
aI15
aa(lp29
I26
aI3
aI8
aI22
aa(lp30
I8
aI6
aI22
aI23
aa(lp31
I17
aI26
aI3
aI13
aa(lp32
I7
aI23
aI24
aI5
aa(lp33
I26
aI7
aI11
aI15
aa(lp34
I9
aI7
aI6
aI37
aa(lp35
I6
aI30
aI8
aI15
aa(lp36
I23
aI5
aI24
aI7
aa(lp37
I18
aI12
aI10
aI19
aa(lp38
I7
aI17
aI9
aI26
aa(lp39
I12
aI6
aI12
aI29
aa(lp40
I9
aI37
aI6
aI7
aa(lp41
I7
aI11
aI21
aI20
aa(lp42
I9
aI16
aI8
aI26
aa(lp43
I11
aI11
aI25
aI12
aa(lp44
I25
aI8
aI14
aI12
aa(lp45
I19
aI3
aI10
aI27
aa(lp46
I9
aI18
aI25
aI7
aa(lp47
I25
aI0
aI18
aI16
aa(lp48
I4
aI31
aI18
aI6
aa(lp49
I21
aI18
aI12
aI8
aa(lp50
I0
aI0
aI0
aI59
aa(lp51
I10
aI16
aI9
aI24
aa(lp52
I12
aI15
aI11
aI21
aa(lp53
I8
aI31
aI10
aI10
aa(lp54
I15
aI27
aI16
aI1
aa(lp55
I4
aI10
aI16
aI29
aa(lp56
I2
aI27
aI15
aI15
aa(lp57
I5
aI9
aI27
aI18
aa(lp58
I3
aI13
aI14
aI29
aa(lp59
I5
aI12
aI20
aI22
aa(lp60
I18
aI23
aI3
aI15
aa(lp61
I7
aI38
aI3
aI11
aa(lp62
I26
aI10
aI11
aI12
aa(lp63
I11
aI9
aI31
aI8
aa(lp64
I12
aI10
aI9
aI28
aa(lp65
I27
aI27
aI2
aI3
aa(lp66
I15
aI16
aI9
aI19
aa(lp67
I7
aI12
aI11
aI29
aa(lp68
I14
aI21
aI20
aI4
aa(lp69
I5
aI8
aI25
aI21
aa(lp70
I9
aI35
aI11
aI4
aa(lp71
I23
aI21
aI10
aI5
aa(lp72
I18
aI15
aI8
aI18
aa(lp73
I25
aI17
aI1
aI16
aa(lp74
I22
aI24
aI10
aI3
aa(lp75
I53
aI0
aI2
aI4
aa(lp76
I13
aI8
aI26
aI12
aa(lp77
I21
aI7
aI7
aI24
aa(lp78
I22
aI16
aI17
aI4
aa(lp79
I26
aI2
aI11
aI20
aa(lp80
I15
aI28
aI3
aI13
aa(lp81
I17
aI10
aI8
aI24
aa(lp82
I3
aI9
aI22
aI25
aa(lp83
I16
aI9
aI6
aI28
aa(lp84
I10
aI12
aI23
aI14
aa(lp85
I10
aI15
aI26
aI8
aa(lp86
I24
aI15
aI4
aI16
aa(lp87
I6
aI9
aI5
aI39
aa(lp88
I9
aI14
aI13
aI23
aa(lp89
I14
aI20
aI9
aI16
aa(lp90
I8
aI22
aI18
aI11
aa(lp91
I8
aI11
aI26
aI14
aa(lp92
I7
aI14
aI23
aI15
aa(lp93
I56
aI2
aI1
aI0
aa(lp94
I4
aI14
aI26
aI15
aa(lp95
I7
aI5
aI22
aI25
aa(lp96
I13
aI22
aI13
aI11
aa(lp97
I11
aI22
aI19
aI7
aa(lp98
I13
aI7
aI16
aI23
aa(lp99
I27
aI14
aI17
aI1
aa(lp100
I15
aI26
aI18
aI0
aa(lp101
I10
aI1
aI22
aI26
aa(lp102
I13
aI17
aI7
aI22
aa(lp103
I17
aI14
aI17
aI11
aaa(lp104
(lp105
I0
aI0
aI0
aI0
aa(lp106
I0
aI0
aI0
aI0
aa(lp107
I0
aI0
aI0
aI0
aa(lp108
I0
aI0
aI0
aI0
aa(lp109
I0
aI0
aI0
aI0
aa(lp110
I0
aI0
aI0
aI0
aa(lp111
I0
aI0
aI0
aI0
aa(lp112
I0
aI0
aI0
aI0
aa(lp113
I0
aI0
aI0
aI0
aa(lp114
I0
aI0
aI0
aI0
aa(lp115
I0
aI0
aI0
aI0
aa(lp116
I0
aI0
aI0
aI0
aa(lp117
I0
aI0
aI0
aI0
aa(lp118
I0
aI0
aI0
aI0
aa(lp119
I0
aI0
aI0
aI0
aa(lp120
I0
aI0
aI0
aI0
aa(lp121
I0
aI0
aI0
aI0
aa(lp122
I0
aI0
aI0
aI0
aa(lp123
I0
aI0
aI0
aI0
aa(lp124
I0
aI0
aI0
aI0
aa(lp125
I0
aI0
aI0
aI0
aa(lp126
I0
aI0
aI0
aI0
aa(lp127
I0
aI0
aI0
aI0
aa(lp128
I0
aI0
aI0
aI0
aa(lp129
I0
aI0
aI0
aI0
aa(lp130
I0
aI0
aI0
aI0
aa(lp131
I0
aI0
aI0
aI0
aa(lp132
I0
aI0
aI0
aI0
aa(lp133
I0
aI0
aI0
aI0
aa(lp134
I0
aI0
aI0
aI0
aa(lp135
I0
aI0
aI0
aI0
aa(lp136
I0
aI0
aI0
aI0
aa(lp137
I0
aI0
aI0
aI0
aa(lp138
I0
aI0
aI0
aI0
aa(lp139
I0
aI0
aI0
aI0
aa(lp140
I0
aI0
aI0
aI0
aa(lp141
I0
aI0
aI0
aI0
aa(lp142
I0
aI0
aI0
aI0
aa(lp143
I0
aI0
aI0
aI0
aa(lp144
I0
aI0
aI0
aI0
aa(lp145
I0
aI0
aI0
aI0
aa(lp146
I0
aI0
aI0
aI0
aa(lp147
I0
aI0
aI0
aI0
aa(lp148
I0
aI0
aI0
aI0
aa(lp149
I0
aI0
aI0
aI0
aa(lp150
I0
aI0
aI0
aI0
aa(lp151
I0
aI0
aI0
aI0
aa(lp152
I0
aI0
aI0
aI0
aa(lp153
I0
aI0
aI0
aI0
aa(lp154
I0
aI0
aI0
aI0
aa(lp155
I0
aI0
aI0
aI0
aa(lp156
I0
aI0
aI0
aI0
aa(lp157
I0
aI0
aI0
aI0
aa(lp158
I0
aI0
aI0
aI0
aa(lp159
I0
aI0
aI0
aI0
aa(lp160
I0
aI0
aI0
aI0
aa(lp161
I0
aI0
aI0
aI0
aa(lp162
I0
aI0
aI0
aI0
aa(lp163
I0
aI0
aI0
aI0
aa(lp164
I0
aI0
aI0
aI0
aa(lp165
I0
aI0
aI0
aI0
aa(lp166
I0
aI0
aI0
aI0
aa(lp167
I0
aI0
aI0
aI0
aa(lp168
I0
aI0
aI0
aI0
aa(lp169
I0
aI0
aI0
aI0
aa(lp170
I0
aI0
aI0
aI0
aa(lp171
I0
aI0
aI0
aI0
aa(lp172
I0
aI0
aI0
aI0
aa(lp173
I0
aI0
aI0
aI0
aa(lp174
I0
aI0
aI0
aI0
aa(lp175
I0
aI0
aI0
aI0
aa(lp176
I0
aI0
aI0
aI0
aa(lp177
I0
aI0
aI0
aI0
aa(lp178
I0
aI0
aI0
aI0
aa(lp179
I0
aI0
aI0
aI0
aa(lp180
I0
aI0
aI0
aI0
aa(lp181
I0
aI0
aI0
aI0
aa(lp182
I0
aI0
aI0
aI0
aa(lp183
I0
aI0
aI0
aI0
aa(lp184
I0
aI0
aI0
aI0
aa(lp185
I0
aI0
aI0
aI0
aa(lp186
I0
aI0
aI0
aI0
aa(lp187
I0
aI0
aI0
aI0
aa(lp188
I0
aI0
aI0
aI0
aa(lp189
I0
aI0
aI0
aI0
aa(lp190
I0
aI0
aI0
aI0
aa(lp191
I0
aI0
aI0
aI0
aa(lp192
I0
aI0
aI0
aI0
aa(lp193
I0
aI0
aI0
aI0
aa(lp194
I0
aI0
aI0
aI0
aa(lp195
I0
aI0
aI0
aI0
aa(lp196
I0
aI0
aI0
aI0
aa(lp197
I0
aI0
aI0
aI0
aa(lp198
I0
aI0
aI0
aI0
aa(lp199
I0
aI0
aI0
aI0
aa(lp200
I0
aI0
aI0
aI0
aa(lp201
I0
aI0
aI0
aI0
aa(lp202
I0
aI0
aI0
aI0
aa(lp203
I0
aI0
aI0
aI0
aa(lp204
I0
aI0
aI0
aI0
aaa(lp205
(lp206
I16
aI13
aI66
aI18
aa(lp207
I64
aI27
aI16
aI6
aa(lp208
I20
aI39
aI18
aI36
aa(lp209
I30
aI17
aI38
aI28
aa(lp210
I11
aI7
aI57
aI38
aa(lp211
I1
aI57
aI33
aI22
aa(lp212
I21
aI29
aI24
aI39
aa(lp213
I27
aI36
aI24
aI26
aa(lp214
I64
aI28
aI14
aI7
aa(lp215
I45
aI17
aI28
aI23
aa(lp216
I19
aI8
aI80
aI6
aa(lp217
I16
aI14
aI40
aI43
aa(lp218
I36
aI22
aI10
aI45
aa(lp219
I19
aI22
aI22
aI50
aa(lp220
I89
aI10
aI2
aI12
aa(lp221
I26
aI32
aI10
aI45
aa(lp222
I9
aI29
aI50
aI25
aa(lp223
I19
aI16
aI63
aI15
aa(lp224
I24
aI10
aI23
aI56
aa(lp225
I24
aI21
aI40
aI28
aa(lp226
I32
aI39
aI11
aI31
aa(lp227
I42
aI32
aI1
aI38
aa(lp228
I16
aI24
aI21
aI52
aa(lp229
I30
aI35
aI24
aI24
aa(lp230
I9
aI80
aI1
aI23
aa(lp231
I49
aI5
aI10
aI49
aa(lp232
I5
aI7
aI67
aI34
aa(lp233
I23
aI44
aI9
aI37
aa(lp234
I27
aI38
aI41
aI7
aa(lp235
I36
aI16
aI39
aI22
aa(lp236
I19
aI9
aI12
aI73
aa(lp237
I13
aI57
aI17
aI26
aa(lp238
I31
aI4
aI58
aI20
aa(lp239
I41
aI17
aI13
aI42
aa(lp240
I14
aI25
aI14
aI60
aa(lp241
I27
aI14
aI15
aI57
aa(lp242
I28
aI60
aI11
aI14
aa(lp243
I14
aI24
aI36
aI39
aa(lp244
I7
aI43
aI21
aI42
aa(lp245
I19
aI21
aI46
aI27
aa(lp246
I51
aI29
aI20
aI13
aa(lp247
I29
aI10
aI19
aI55
aa(lp248
I19
aI44
aI28
aI22
aa(lp249
I38
aI3
aI47
aI25
aa(lp250
I3
aI22
aI25
aI63
aa(lp251
I48
aI27
aI22
aI16
aa(lp252
I46
aI21
aI23
aI23
aa(lp253
I25
aI24
aI12
aI52
aa(lp254
I25
aI27
aI21
aI40
aa(lp255
I20
aI59
aI20
aI14
aa(lp256
I27
aI54
aI29
aI3
aa(lp257
I10
aI11
aI43
aI49
aa(lp258
I16
aI36
aI30
aI31
aa(lp259
I19
aI27
aI51
aI16
aa(lp260
I9
aI27
aI23
aI54
aa(lp261
I22
aI32
aI35
aI24
aa(lp262
I40
aI37
aI9
aI27
aa(lp263
I7
aI75
aI18
aI13
aa(lp264
I25
aI19
aI15
aI54
aa(lp265
I20
aI23
aI43
aI27
aa(lp266
I13
aI13
aI17
aI70
aa(lp267
I50
aI44
aI6
aI13
aa(lp268
I34
aI24
aI27
aI28
aa(lp269
I22
aI10
aI27
aI54
aa(lp270
I15
aI31
aI54
aI13
aa(lp271
I69
aI10
aI20
aI14
aa(lp272
I41
aI15
aI6
aI51
aa(lp273
I33
aI43
aI16
aI21
aa(lp274
I35
aI32
aI13
aI33
aa(lp275
I29
aI19
aI53
aI12
aa(lp276
I34
aI55
aI19
aI5
aa(lp277
I15
aI0
aI81
aI17
aa(lp278
I31
aI9
aI49
aI24
aa(lp279
I30
aI21
aI18
aI44
aa(lp280
I33
aI34
aI38
aI8
aa(lp281
I23
aI45
aI11
aI34
aa(lp282
I23
aI59
aI2
aI29
aa(lp283
I49
aI25
aI7
aI32
aa(lp284
I8
aI24
aI32
aI49
aa(lp285
I39
aI23
aI15
aI36
aa(lp286
I16
aI40
aI18
aI39
aa(lp287
I5
aI73
aI29
aI6
aa(lp288
I28
aI41
aI22
aI22
aa(lp289
I9
aI16
aI20
aI68
aa(lp290
I16
aI33
aI24
aI40
aa(lp291
I16
aI31
aI55
aI11
aa(lp292
I20
aI28
aI27
aI38
aa(lp293
I20
aI27
aI34
aI32
aa(lp294
I18
aI36
aI40
aI19
aa(lp295
I22
aI22
aI23
aI46
aa(lp296
I6
aI24
aI51
aI32
aa(lp297
I3
aI3
aI83
aI24
aa(lp298
I30
aI40
aI17
aI26
aa(lp299
I25
aI44
aI34
aI10
aa(lp300
I20
aI19
aI23
aI51
aa(lp301
I38
aI21
aI46
aI8
aa(lp302
I22
aI40
aI48
aI3
aa(lp303
I23
aI5
aI27
aI58
aa(lp304
I25
aI36
aI16
aI36
aa(lp305
I43
aI24
aI24
aI22
aaa(lp306
(lp307
I21
aI10
aI54
aI10
aa(lp308
I30
aI33
aI23
aI9
aa(lp309
I17
aI33
aI25
aI20
aa(lp310
I23
aI17
aI36
aI19
aa(lp311
I17
aI9
aI45
aI24
aa(lp312
I2
aI33
aI45
aI15
aa(lp313
I26
aI21
aI41
aI7
aa(lp314
I1
aI0
aI94
aI0
aa(lp315
I33
aI52
aI9
aI1
aa(lp316
I32
aI15
aI26
aI22
aa(lp317
I23
aI3
aI66
aI3
aa(lp318
I6
aI22
aI32
aI35
aa(lp319
I25
aI10
aI13
aI47
aa(lp320
I52
aI21
aI1
aI21
aa(lp321
I39
aI11
aI11
aI34
aa(lp322
I19
aI27
aI20
aI29
aa(lp323
I16
aI16
aI42
aI21
aa(lp324
I12
aI26
aI38
aI19
aa(lp325
I22
aI10
aI16
aI47
aa(lp326
I21
aI16
aI28
aI30
aa(lp327
I25
aI25
aI15
aI30
aa(lp328
I15
aI27
aI7
aI46
aa(lp329
I0
aI6
aI80
aI9
aa(lp330
I24
aI36
aI9
aI26
aa(lp331
I7
aI64
aI2
aI22
aa(lp332
I43
aI3
aI9
aI40
aa(lp333
I10
aI11
aI40
aI34
aa(lp334
I22
aI32
aI14
aI27
aa(lp335
I10
aI26
aI49
aI10
aa(lp336
I30
aI6
aI26
aI33
aa(lp337
I15
aI12
aI14
aI54
aa(lp338
I12
aI47
aI7
aI29
aa(lp339
I35
aI6
aI39
aI15
aa(lp340
I30
aI20
aI10
aI35
aa(lp341
I15
aI14
aI19
aI47
aa(lp342
I26
aI12
aI17
aI40
aa(lp343
I18
aI57
aI12
aI8
aa(lp344
I27
aI68
aI0
aI0
aa(lp345
I12
aI24
aI17
aI42
aa(lp346
I15
aI15
aI40
aI25
aa(lp347
I39
aI15
aI29
aI12
aa(lp348
I23
aI3
aI12
aI57
aa(lp349
I14
aI33
aI28
aI20
aa(lp350
I23
aI6
aI34
aI32
aa(lp351
I14
aI23
aI13
aI45
aa(lp352
I27
aI19
aI30
aI19
aa(lp353
I39
aI17
aI27
aI12
aa(lp354
I21
aI20
aI12
aI42
aa(lp355
I19
aI13
aI21
aI42
aa(lp356
I14
aI43
aI15
aI23
aa(lp357
I23
aI39
aI31
aI2
aa(lp358
I5
aI23
aI24
aI43
aa(lp359
I13
aI37
aI22
aI23
aa(lp360
I15
aI15
aI44
aI21
aa(lp361
I9
aI19
aI26
aI41
aa(lp362
I20
aI17
aI37
aI21
aa(lp363
I32
aI29
aI7
aI27
aa(lp364
I10
aI61
aI2
aI22
aa(lp365
I26
aI24
aI15
aI30
aa(lp366
I19
aI18
aI44
aI14
aa(lp367
I0
aI1
aI0
aI94
aa(lp368
I35
aI48
aI1
aI11
aa(lp369
I30
aI28
aI13
aI24
aa(lp370
I18
aI7
aI30
aI40
aa(lp371
I39
aI10
aI45
aI1
aa(lp372
I23
aI18
aI24
aI30
aa(lp373
I35
aI12
aI11
aI37
aa(lp374
I24
aI27
aI25
aI19
aa(lp375
I33
aI20
aI15
aI27
aa(lp376
I39
aI26
aI3
aI27
aa(lp377
I33
aI34
aI24
aI4
aa(lp378
I37
aI17
aI8
aI33
aa(lp379
I37
aI15
aI28
aI15
aa(lp380
I18
aI8
aI12
aI57
aa(lp381
I28
aI30
aI31
aI6
aa(lp382
I34
aI9
aI16
aI36
aa(lp383
I20
aI47
aI6
aI22
aa(lp384
I27
aI23
aI14
aI31
aa(lp385
I8
aI21
aI25
aI41
aa(lp386
I33
aI11
aI18
aI33
aa(lp387
I14
aI25
aI30
aI26
aa(lp388
I10
aI21
aI39
aI25
aa(lp389
I24
aI33
aI13
aI25
aa(lp390
I12
aI7
aI17
aI59
aa(lp391
I6
aI15
aI67
aI7
aa(lp392
I27
aI27
aI24
aI17
aa(lp393
I19
aI31
aI25
aI20
aa(lp394
I11
aI25
aI35
aI24
aa(lp395
I18
aI16
aI43
aI18
aa(lp396
I19
aI23
aI22
aI31
aa(lp397
I9
aI21
aI42
aI23
aa(lp398
I12
aI14
aI26
aI43
aa(lp399
I25
aI36
aI11
aI23
aa(lp400
I80
aI15
aI0
aI0
aa(lp401
I22
aI17
aI14
aI42
aa(lp402
I43
aI14
aI32
aI6
aa(lp403
I19
aI35
aI41
aI0
aa(lp404
I19
aI5
aI28
aI43
aa(lp405
I15
aI25
aI12
aI43
aa(lp406
I33
aI49
aI13
aI0
aaa(lp407
(lp408
I0
aI0
aI0
aI0
aa(lp409
I0
aI0
aI0
aI0
aa(lp410
I0
aI0
aI0
aI0
aa(lp411
I0
aI0
aI0
aI0
aa(lp412
I0
aI0
aI0
aI0
aa(lp413
I0
aI0
aI0
aI0
aa(lp414
I0
aI0
aI0
aI0
aa(lp415
I0
aI0
aI0
aI0
aa(lp416
I0
aI0
aI0
aI0
aa(lp417
I0
aI0
aI0
aI0
aa(lp418
I0
aI0
aI0
aI0
aa(lp419
I0
aI0
aI0
aI0
aa(lp420
I0
aI0
aI0
aI0
aa(lp421
I0
aI0
aI0
aI0
aa(lp422
I0
aI0
aI0
aI0
aa(lp423
I0
aI0
aI0
aI0
aa(lp424
I0
aI0
aI0
aI0
aa(lp425
I0
aI0
aI0
aI0
aa(lp426
I0
aI0
aI0
aI0
aa(lp427
I0
aI0
aI0
aI0
aa(lp428
I0
aI0
aI0
aI0
aa(lp429
I0
aI0
aI0
aI0
aa(lp430
I0
aI0
aI0
aI0
aa(lp431
I0
aI0
aI0
aI0
aa(lp432
I0
aI0
aI0
aI0
aa(lp433
I0
aI0
aI0
aI0
aa(lp434
I0
aI0
aI0
aI0
aa(lp435
I0
aI0
aI0
aI0
aa(lp436
I0
aI0
aI0
aI0
aa(lp437
I0
aI0
aI0
aI0
aa(lp438
I0
aI0
aI0
aI0
aa(lp439
I0
aI0
aI0
aI0
aa(lp440
I0
aI0
aI0
aI0
aa(lp441
I0
aI0
aI0
aI0
aa(lp442
I0
aI0
aI0
aI0
aa(lp443
I0
aI0
aI0
aI0
aa(lp444
I0
aI0
aI0
aI0
aa(lp445
I0
aI0
aI0
aI0
aa(lp446
I0
aI0
aI0
aI0
aa(lp447
I0
aI0
aI0
aI0
aa(lp448
I0
aI0
aI0
aI0
aa(lp449
I0
aI0
aI0
aI0
aa(lp450
I0
aI0
aI0
aI0
aa(lp451
I0
aI0
aI0
aI0
aa(lp452
I0
aI0
aI0
aI0
aa(lp453
I0
aI0
aI0
aI0
aa(lp454
I0
aI0
aI0
aI0
aa(lp455
I0
aI0
aI0
aI0
aa(lp456
I0
aI0
aI0
aI0
aa(lp457
I0
aI0
aI0
aI0
aa(lp458
I0
aI0
aI0
aI0
aa(lp459
I0
aI0
aI0
aI0
aa(lp460
I0
aI0
aI0
aI0
aa(lp461
I0
aI0
aI0
aI0
aa(lp462
I0
aI0
aI0
aI0
aa(lp463
I0
aI0
aI0
aI0
aa(lp464
I0
aI0
aI0
aI0
aa(lp465
I0
aI0
aI0
aI0
aa(lp466
I0
aI0
aI0
aI0
aa(lp467
I0
aI0
aI0
aI0
aa(lp468
I0
aI0
aI0
aI0
aa(lp469
I0
aI0
aI0
aI0
aa(lp470
I0
aI0
aI0
aI0
aa(lp471
I0
aI0
aI0
aI0
aa(lp472
I0
aI0
aI0
aI0
aa(lp473
I0
aI0
aI0
aI0
aa(lp474
I0
aI0
aI0
aI0
aa(lp475
I0
aI0
aI0
aI0
aa(lp476
I0
aI0
aI0
aI0
aa(lp477
I0
aI0
aI0
aI0
aa(lp478
I0
aI0
aI0
aI0
aa(lp479
I0
aI0
aI0
aI0
aa(lp480
I0
aI0
aI0
aI0
aa(lp481
I0
aI0
aI0
aI0
aa(lp482
I0
aI0
aI0
aI0
aa(lp483
I0
aI0
aI0
aI0
aa(lp484
I0
aI0
aI0
aI0
aa(lp485
I0
aI0
aI0
aI0
aa(lp486
I0
aI0
aI0
aI0
aa(lp487
I0
aI0
aI0
aI0
aa(lp488
I0
aI0
aI0
aI0
aa(lp489
I0
aI0
aI0
aI0
aa(lp490
I0
aI0
aI0
aI0
aa(lp491
I0
aI0
aI0
aI0
aa(lp492
I0
aI0
aI0
aI0
aa(lp493
I0
aI0
aI0
aI0
aa(lp494
I0
aI0
aI0
aI0
aa(lp495
I0
aI0
aI0
aI0
aa(lp496
I0
aI0
aI0
aI0
aa(lp497
I0
aI0
aI0
aI0
aa(lp498
I0
aI0
aI0
aI0
aa(lp499
I0
aI0
aI0
aI0
aa(lp500
I0
aI0
aI0
aI0
aa(lp501
I0
aI0
aI0
aI0
aa(lp502
I0
aI0
aI0
aI0
aa(lp503
I0
aI0
aI0
aI0
aa(lp504
I0
aI0
aI0
aI0
aa(lp505
I0
aI0
aI0
aI0
aa(lp506
I0
aI0
aI0
aI0
aa(lp507
I0
aI0
aI0
aI0
aaa(lp508
(lp509
I34
aI9
aI92
aI15
aa(lp510
I51
aI51
aI31
aI17
aa(lp511
I28
aI46
aI38
aI38
aa(lp512
I50
aI0
aI22
aI78
aa(lp513
I29
aI11
aI65
aI45
aa(lp514
I7
aI57
aI55
aI31
aa(lp515
I39
aI48
aI56
aI7
aa(lp516
I29
aI49
aI19
aI53
aa(lp517
I16
aI7
aI78
aI49
aa(lp518
I54
aI18
aI41
aI37
aa(lp519
I28
aI11
aI102
aI9
aa(lp520
I17
aI32
aI54
aI47
aa(lp521
I11
aI69
aI10
aI60
aa(lp522
I25
aI18
aI38
aI69
aa(lp523
I69
aI18
aI18
aI45
aa(lp524
I31
aI40
aI30
aI49
aa(lp525
I25
aI26
aI61
aI38
aa(lp526
I29
aI43
aI54
aI24
aa(lp527
I37
aI17
aI30
aI66
aa(lp528
I37
aI25
aI47
aI41
aa(lp529
I30
aI54
aI19
aI47
aa(lp530
I17
aI46
aI11
aI76
aa(lp531
I0
aI150
aI0
aI0
aa(lp532
I52
aI38
aI26
aI34
aa(lp533
I16
aI103
aI3
aI28
aa(lp534
I64
aI9
aI13
aI64
aa(lp535
I11
aI19
aI73
aI47
aa(lp536
I38
aI52
aI22
aI38
aa(lp537
I22
aI47
aI69
aI12
aa(lp538
I64
aI21
aI38
aI27
aa(lp539
I25
aI15
aI17
aI93
aa(lp540
I17
aI75
aI17
aI41
aa(lp541
I58
aI6
aI68
aI18
aa(lp542
I50
aI22
aI15
aI63
aa(lp543
I29
aI25
aI28
aI68
aa(lp544
I40
aI16
aI28
aI66
aa(lp545
I19
aI100
aI20
aI11
aa(lp546
I6
aI37
aI53
aI54
aa(lp547
I16
aI43
aI21
aI70
aa(lp548
I33
aI32
aI53
aI32
aa(lp549
I66
aI34
aI32
aI18
aa(lp550
I2
aI14
aI31
aI103
aa(lp551
I36
aI47
aI42
aI25
aa(lp552
I37
aI7
aI57
aI49
aa(lp553
I9
aI81
aI36
aI24
aa(lp554
I105
aI0
aI39
aI6
aa(lp555
I64
aI23
aI39
aI24
aa(lp556
I27
aI36
aI14
aI73
aa(lp557
I33
aI25
aI34
aI58
aa(lp558
I2
aI63
aI52
aI33
aa(lp559
I38
aI56
aI47
aI9
aa(lp560
I4
aI32
aI38
aI76
aa(lp561
I15
aI53
aI36
aI46
aa(lp562
I21
aI39
aI67
aI23
aa(lp563
I15
aI33
aI47
aI55
aa(lp564
I19
aI40
aI55
aI36
aa(lp565
I0
aI1
aI58
aI91
aa(lp566
I14
aI92
aI6
aI38
aa(lp567
I46
aI27
aI33
aI44
aa(lp568
I30
aI22
aI66
aI32
aa(lp569
I17
aI37
aI32
aI64
aa(lp570
I60
aI75
aI7
aI8
aa(lp571
I39
aI40
aI25
aI46
aa(lp572
I28
aI22
aI44
aI56
aa(lp573
I27
aI49
aI66
aI8
aa(lp574
I29
aI26
aI52
aI43
aa(lp575
I58
aI25
aI8
aI59
aa(lp576
I49
aI52
aI24
aI25
aa(lp577
I61
aI45
aI14
aI30
aa(lp578
I59
aI45
aI7
aI39
aa(lp579
I55
aI62
aI29
aI4
aa(lp580
I68
aI27
aI17
aI38
aa(lp581
I57
aI18
aI41
aI34
aa(lp582
I27
aI26
aI20
aI77
aa(lp583
I49
aI41
aI52
aI8
aa(lp584
I57
aI12
aI24
aI57
aa(lp585
I27
aI74
aI6
aI43
aa(lp586
I45
aI41
aI21
aI43
aa(lp587
I14
aI43
aI35
aI58
aa(lp588
I48
aI21
aI21
aI60
aa(lp589
I38
aI31
aI41
aI40
aa(lp590
I34
aI32
aI46
aI38
aa(lp591
I1
aI0
aI0
aI149
aa(lp592
I13
aI24
aI19
aI94
aa(lp593
I18
aI42
aI35
aI55
aa(lp594
I34
aI49
aI34
aI33
aa(lp595
I27
aI38
aI44
aI41
aa(lp596
I26
aI38
aI40
aI46
aa(lp597
I14
aI40
aI66
aI30
aa(lp598
I28
aI37
aI32
aI53
aa(lp599
I17
aI45
aI60
aI28
aa(lp600
I19
aI15
aI52
aI64
aa(lp601
I130
aI0
aI2
aI18
aa(lp602
I25
aI62
aI40
aI23
aa(lp603
I25
aI21
aI32
aI72
aa(lp604
I54
aI26
aI53
aI17
aa(lp605
I29
aI60
aI61
aI0
aa(lp606
I27
aI6
aI60
aI57
aa(lp607
I28
aI35
aI27
aI60
aa(lp608
I65
aI32
aI20
aI33
aaa(lp609
(lp610
I57
aI34
aI145
aI25
aa(lp611
I97
aI85
aI44
aI35
aa(lp612
I64
aI79
aI64
aI54
aa(lp613
I55
aI61
aI81
aI64
aa(lp614
I46
aI24
aI110
aI81
aa(lp615
I14
aI101
aI96
aI50
aa(lp616
I68
aI86
aI84
aI23
aa(lp617
I39
aI82
aI48
aI92
aa(lp618
I88
aI128
aI38
aI7
aa(lp619
I96
aI39
aI78
aI48
aa(lp620
I43
aI16
aI183
aI19
aa(lp621
I19
aI49
aI95
aI98
aa(lp622
I68
aI41
aI33
aI119
aa(lp623
I0
aI0
aI261
aI0
aa(lp624
I137
aI110
aI1
aI13
aa(lp625
I59
aI71
aI42
aI89
aa(lp626
I33
aI60
aI107
aI61
aa(lp627
I31
aI51
aI136
aI43
aa(lp628
I61
aI19
aI56
aI125
aa(lp629
I33
aI87
aI4
aI137
aa(lp630
I56
aI87
aI44
aI74
aa(lp631
I50
aI79
aI14
aI118
aa(lp632
I34
aI62
aI31
aI134
aa(lp633
I87
aI102
aI28
aI44
aa(lp634
I44
aI202
aI11
aI4
aa(lp635
I109
aI8
aI27
aI117
aa(lp636
I29
aI32
aI118
aI82
aa(lp637
I44
aI106
aI26
aI85
aa(lp638
I43
aI71
aI113
aI34
aa(lp639
I95
aI27
aI82
aI57
aa(lp640
I38
aI28
aI38
aI157
aa(lp641
I20
aI122
aI42
aI77
aa(lp642
I82
aI12
aI116
aI51
aa(lp643
I85
aI32
aI24
aI120
aa(lp644
I43
aI41
aI31
aI146
aa(lp645
I72
aI30
aI42
aI117
aa(lp646
I37
aI180
aI26
aI18
aa(lp647
I24
aI61
aI95
aI81
aa(lp648
I39
aI65
aI33
aI124
aa(lp649
I50
aI41
aI114
aI56
aa(lp650
I98
aI51
aI60
aI52
aa(lp651
I73
aI19
aI49
aI120
aa(lp652
I36
aI80
aI91
aI54
aa(lp653
I65
aI12
aI108
aI76
aa(lp654
I18
aI130
aI70
aI43
aa(lp655
I107
aI56
aI57
aI41
aa(lp656
I119
aI52
aI59
aI31
aa(lp657
I48
aI70
aI49
aI94
aa(lp658
I50
aI48
aI61
aI102
aa(lp659
I39
aI130
aI39
aI53
aa(lp660
I70
aI116
aI70
aI5
aa(lp661
I14
aI38
aI72
aI137
aa(lp662
I38
aI88
aI51
aI84
aa(lp663
I37
aI38
aI131
aI55
aa(lp664
I28
aI61
aI84
aI88
aa(lp665
I36
aI66
aI99
aI60
aa(lp666
I103
aI87
aI26
aI45
aa(lp667
I31
aI159
aI11
aI60
aa(lp668
I76
aI58
aI52
aI75
aa(lp669
I52
aI47
aI109
aI53
aa(lp670
I46
aI57
aI49
aI109
aa(lp671
I105
aI136
aI5
aI15
aa(lp672
I77
aI59
aI62
aI63
aa(lp673
I42
aI32
aI77
aI110
aa(lp674
I0
aI0
aI0
aI261
aa(lp675
I48
aI61
aI83
aI69
aa(lp676
I92
aI44
aI15
aI110
aa(lp677
I68
aI87
aI52
aI54
aa(lp678
I78
aI74
aI36
aI73
aa(lp679
I258
aI2
aI0
aI1
aa(lp680
I82
aI118
aI55
aI6
aa(lp681
I116
aI57
aI28
aI60
aa(lp682
I0
aI0
aI261
aI0
aa(lp683
I68
aI42
aI31
aI120
aa(lp684
I84
aI80
aI84
aI13
aa(lp685
I0
aI261
aI0
aI0
aa(lp686
I47
aI127
aI14
aI73
aa(lp687
I80
aI82
aI31
aI68
aa(lp688
I18
aI56
aI69
aI118
aa(lp689
I98
aI22
aI31
aI110
aa(lp690
I55
aI60
aI83
aI63
aa(lp691
I41
aI59
aI105
aI56
aa(lp692
I66
aI69
aI54
aI72
aa(lp693
I24
aI36
aI47
aI154
aa(lp694
I0
aI234
aI27
aI0
aa(lp695
I72
aI81
aI52
aI56
aa(lp696
I53
aI82
aI64
aI62
aa(lp697
I38
aI57
aI81
aI85
aa(lp698
I39
aI66
aI103
aI53
aa(lp699
I52
aI62
aI59
aI88
aa(lp700
I260
aI1
aI0
aI0
aa(lp701
I36
aI26
aI90
aI109
aa(lp702
I69
aI97
aI34
aI61
aa(lp703
I56
aI91
aI61
aI53
aa(lp704
I57
aI39
aI39
aI126
aa(lp705
I95
aI53
aI101
aI12
aa(lp706
I57
aI89
aI113
aI2
aa(lp707
I46
aI18
aI76
aI121
aa(lp708
I56
aI67
aI46
aI92
aa(lp709
I101
aI51
aI58
aI51
aaa(lp710
(lp711
I24
aI10
aI75
aI12
aa(lp712
I36
aI35
aI37
aI13
aa(lp713
I10
aI20
aI86
aI5
aa(lp714
I21
aI31
aI45
aI24
aa(lp715
I21
aI11
aI53
aI36
aa(lp716
I9
aI40
aI49
aI23
aa(lp717
I31
aI27
aI52
aI11
aa(lp718
I0
aI29
aI2
aI90
aa(lp719
I41
aI8
aI21
aI51
aa(lp720
I39
aI17
aI40
aI25
aa(lp721
I21
aI8
aI88
aI4
aa(lp722
I6
aI22
aI49
aI44
aa(lp723
I30
aI15
aI11
aI65
aa(lp724
I10
aI33
aI18
aI60
aa(lp725
I56
aI17
aI14
aI34
aa(lp726
I40
aI34
aI16
aI31
aa(lp727
I14
aI21
aI61
aI25
aa(lp728
I19
aI25
aI53
aI24
aa(lp729
I19
aI15
aI35
aI52
aa(lp730
I26
aI24
aI43
aI28
aa(lp731
I23
aI47
aI17
aI34
aa(lp732
I19
aI30
aI10
aI62
aa(lp733
I17
aI31
aI14
aI59
aa(lp734
I29
aI44
aI20
aI28
aa(lp735
I15
aI76
aI4
aI26
aa(lp736
I65
aI9
aI10
aI37
aa(lp737
I14
aI11
aI42
aI54
aa(lp738
I34
aI35
aI22
aI30
aa(lp739
I26
aI30
aI53
aI12
aa(lp740
I9
aI0
aI112
aI0
aa(lp741
I14
aI10
aI24
aI73
aa(lp742
I10
aI55
aI17
aI39
aa(lp743
I45
aI6
aI46
aI24
aa(lp744
I42
aI18
aI10
aI51
aa(lp745
I20
aI15
aI29
aI57
aa(lp746
I23
aI14
aI33
aI51
aa(lp747
I27
aI65
aI16
aI13
aa(lp748
I0
aI51
aI8
aI62
aa(lp749
I9
aI22
aI19
aI71
aa(lp750
I23
aI24
aI50
aI24
aa(lp751
I49
aI22
aI34
aI16
aa(lp752
I34
aI10
aI24
aI53
aa(lp753
I21
aI41
aI34
aI25
aa(lp754
I37
aI8
aI49
aI27
aa(lp755
I9
aI60
aI35
aI17
aa(lp756
I46
aI30
aI25
aI20
aa(lp757
I57
aI22
aI16
aI26
aa(lp758
I17
aI33
aI15
aI56
aa(lp759
I18
aI25
aI24
aI54
aa(lp760
I16
aI57
aI15
aI33
aa(lp761
I27
aI56
aI36
aI2
aa(lp762
I4
aI19
aI49
aI49
aa(lp763
I6
aI36
aI39
aI40
aa(lp764
I28
aI22
aI50
aI21
aa(lp765
I17
aI28
aI28
aI48
aa(lp766
I21
aI24
aI48
aI28
aa(lp767
I49
aI38
aI9
aI25
aa(lp768
I20
aI72
aI8
aI21
aa(lp769
I36
aI31
aI22
aI32
aa(lp770
I21
aI23
aI44
aI33
aa(lp771
I16
aI18
aI22
aI65
aa(lp772
I48
aI60
aI3
aI10
aa(lp773
I34
aI29
aI29
aI29
aa(lp774
I26
aI11
aI30
aI54
aa(lp775
I28
aI40
aI38
aI15
aa(lp776
I23
aI27
aI49
aI22
aa(lp777
I39
aI18
aI11
aI53
aa(lp778
I37
aI37
aI25
aI22
aa(lp779
I38
aI43
aI14
aI26
aa(lp780
I55
aI27
aI3
aI36
aa(lp781
I37
aI57
aI23
aI4
aa(lp782
I53
aI27
aI12
aI29
aa(lp783
I52
aI10
aI31
aI28
aa(lp784
I27
aI13
aI18
aI63
aa(lp785
I43
aI36
aI33
aI9
aa(lp786
I51
aI9
aI22
aI39
aa(lp787
I25
aI49
aI11
aI36
aa(lp788
I41
aI34
aI13
aI33
aa(lp789
I11
aI24
aI28
aI58
aa(lp790
I39
aI23
aI12
aI47
aa(lp791
I32
aI24
aI41
aI24
aa(lp792
I24
aI16
aI59
aI22
aa(lp793
I24
aI32
aI26
aI39
aa(lp794
I11
aI11
aI14
aI85
aa(lp795
I7
aI45
aI36
aI33
aa(lp796
I48
aI5
aI17
aI51
aa(lp797
I20
aI38
aI31
aI32
aa(lp798
I20
aI35
aI41
aI25
aa(lp799
I13
aI29
aI55
aI24
aa(lp800
I26
aI21
aI28
aI46
aa(lp801
I0
aI7
aI2
aI112
aa(lp802
I14
aI14
aI42
aI51
aa(lp803
I39
aI40
aI19
aI23
aa(lp804
I36
aI30
aI37
aI18
aa(lp805
I19
aI18
aI23
aI61
aa(lp806
I31
aI57
aI31
aI2
aa(lp807
I25
aI45
aI51
aI0
aa(lp808
I0
aI31
aI83
aI7
aa(lp809
I21
aI33
aI20
aI47
aa(lp810
I50
aI29
aI24
aI18
aaa(lp811
(lp812
I29
aI19
aI60
aI19
aa(lp813
I71
aI0
aI15
aI41
aa(lp814
I32
aI39
aI24
aI32
aa(lp815
I38
aI27
aI36
aI26
aa(lp816
I28
aI10
aI55
aI34
aa(lp817
I7
aI50
aI47
aI23
aa(lp818
I31
aI36
aI54
aI6
aa(lp819
I25
aI31
aI25
aI46
aa(lp820
I118
aI4
aI0
aI5
aa(lp821
I42
aI17
aI44
aI24
aa(lp822
I18
aI13
aI86
aI10
aa(lp823
I7
aI21
aI45
aI54
aa(lp824
I37
aI20
aI14
aI56
aa(lp825
I23
aI22
aI25
aI57
aa(lp826
I59
aI15
aI16
aI37
aa(lp827
I47
aI5
aI48
aI27
aa(lp828
I20
aI25
aI57
aI25
aa(lp829
I10
aI39
aI60
aI18
aa(lp830
I23
aI12
aI20
aI72
aa(lp831
I24
aI22
aI63
aI18
aa(lp832
I38
aI36
aI14
aI39
aa(lp833
I20
aI33
aI10
aI64
aa(lp834
I20
aI21
aI12
aI74
aa(lp835
I41
aI43
aI20
aI23
aa(lp836
I19
aI75
aI2
aI31
aa(lp837
I53
aI7
aI12
aI55
aa(lp838
I13
aI11
aI61
aI42
aa(lp839
I31
aI37
aI11
aI48
aa(lp840
I16
aI41
aI56
aI14
aa(lp841
I52
aI8
aI40
aI27
aa(lp842
I14
aI15
aI16
aI82
aa(lp843
I17
aI54
aI21
aI35
aa(lp844
I47
aI4
aI55
aI21
aa(lp845
I41
aI23
aI13
aI50
aa(lp846
I21
aI18
aI13
aI75
aa(lp847
I32
aI18
aI26
aI51
aa(lp848
I21
aI82
aI12
aI12
aa(lp849
I8
aI32
aI53
aI34
aa(lp850
I29
aI47
aI11
aI40
aa(lp851
I27
aI25
aI47
aI28
aa(lp852
I49
aI23
aI35
aI20
aa(lp853
I30
aI8
aI23
aI66
aa(lp854
I15
aI38
aI52
aI22
aa(lp855
I38
aI8
aI55
aI26
aa(lp856
I9
aI65
aI37
aI16
aa(lp857
I65
aI25
aI22
aI15
aa(lp858
I2
aI121
aI4
aI0
aa(lp859
I17
aI29
aI21
aI60
aa(lp860
I32
aI28
aI22
aI45
aa(lp861
I21
aI65
aI23
aI18
aa(lp862
I27
aI51
aI44
aI5
aa(lp863
I0
aI1
aI125
aI1
aa(lp864
I21
aI1
aI4
aI101
aa(lp865
I30
aI26
aI49
aI22
aa(lp866
I6
aI28
aI45
aI48
aa(lp867
I18
aI26
aI47
aI36
aa(lp868
I49
aI42
aI14
aI22
aa(lp869
I2
aI35
aI90
aI0
aa(lp870
I29
aI22
aI29
aI47
aa(lp871
I22
aI24
aI45
aI36
aa(lp872
I22
aI25
aI25
aI55
aa(lp873
I51
aI62
aI6
aI8
aa(lp874
I44
aI30
aI28
aI25
aa(lp875
I14
aI21
aI35
aI57
aa(lp876
I22
aI41
aI52
aI12
aa(lp877
I25
aI32
aI45
aI25
aa(lp878
I49
aI14
aI17
aI47
aa(lp879
I42
aI41
aI24
aI20
aa(lp880
I33
aI31
aI16
aI47
aa(lp881
I40
aI38
aI5
aI44
aa(lp882
I42
aI49
aI30
aI6
aa(lp883
I44
aI39
aI11
aI33
aa(lp884
I48
aI15
aI44
aI20
aa(lp885
I27
aI22
aI9
aI69
aa(lp886
I37
aI39
aI38
aI13
aa(lp887
I58
aI7
aI23
aI39
aa(lp888
I31
aI55
aI3
aI38
aa(lp889
I41
aI37
aI18
aI31
aa(lp890
I8
aI27
aI29
aI63
aa(lp891
I40
aI17
aI17
aI53
aa(lp892
I31
aI32
aI35
aI29
aa(lp893
I1
aI15
aI105
aI6
aa(lp894
I16
aI15
aI59
aI37
aa(lp895
I20
aI25
aI21
aI61
aa(lp896
I13
aI31
aI36
aI47
aa(lp897
I27
aI44
aI29
aI27
aa(lp898
I29
aI43
aI22
aI33
aa(lp899
I24
aI30
aI38
aI35
aa(lp900
I15
aI36
aI58
aI18
aa(lp901
I27
aI28
aI30
aI42
aa(lp902
I10
aI31
aI51
aI35
aa(lp903
I11
aI11
aI55
aI50
aa(lp904
I36
aI46
aI16
aI29
aa(lp905
I33
aI50
aI28
aI16
aa(lp906
I22
aI17
aI19
aI69
aa(lp907
I69
aI5
aI51
aI2
aa(lp908
I28
aI39
aI57
aI3
aa(lp909
I27
aI8
aI33
aI59
aa(lp910
I26
aI20
aI22
aI59
aa(lp911
I48
aI23
aI27
aI29
aaa(lp912
(lp913
I9
aI6
aI45
aI6
aa(lp914
I20
aI27
aI14
aI5
aa(lp915
I15
aI25
aI8
aI18
aa(lp916
I12
aI17
aI19
aI18
aa(lp917
I5
aI7
aI31
aI23
aa(lp918
I4
aI22
aI30
aI10
aa(lp919
I21
aI21
aI21
aI3
aa(lp920
I18
aI16
aI9
aI23
aa(lp921
I25
aI35
aI5
aI1
aa(lp922
I18
aI13
aI18
aI17
aa(lp923
I15
aI3
aI41
aI7
aa(lp924
I8
aI11
aI31
aI16
aa(lp925
I25
aI7
aI8
aI26
aa(lp926
I8
aI14
aI18
aI26
aa(lp927
I35
aI9
aI11
aI11
aa(lp928
I13
aI17
aI14
aI22
aa(lp929
I12
aI17
aI21
aI16
aa(lp930
I10
aI16
aI31
aI9
aa(lp931
I10
aI5
aI20
aI31
aa(lp932
I16
aI12
aI24
aI14
aa(lp933
I12
aI21
aI15
aI18
aa(lp934
I7
aI23
aI6
aI30
aa(lp935
I8
aI11
aI11
aI36
aa(lp936
I20
aI24
aI9
aI13
aa(lp937
I7
aI43
aI2
aI14
aa(lp938
I29
aI1
aI8
aI28
aa(lp939
I4
aI10
aI31
aI21
aa(lp940
I0
aI30
aI33
aI3
aa(lp941
I10
aI16
aI31
aI9
aa(lp942
I28
aI9
aI16
aI13
aa(lp943
I7
aI0
aI57
aI2
aa(lp944
I5
aI26
aI12
aI23
aa(lp945
I14
aI6
aI33
aI13
aa(lp946
I23
aI9
aI14
aI20
aa(lp947
I15
aI15
aI8
aI28
aa(lp948
I16
aI8
aI15
aI27
aa(lp949
I11
aI43
aI3
aI9
aa(lp950
I2
aI23
aI21
aI20
aa(lp951
I8
aI23
aI7
aI28
aa(lp952
I9
aI10
aI32
aI15
aa(lp953
I22
aI13
aI21
aI10
aa(lp954
I18
aI1
aI16
aI31
aa(lp955
I15
aI15
aI25
aI11
aa(lp956
I19
aI1
aI29
aI17
aa(lp957
I7
aI34
aI16
aI9
aa(lp958
I33
aI12
aI14
aI7
aa(lp959
I34
aI9
aI13
aI10
aa(lp960
I5
aI17
aI8
aI36
aa(lp961
I19
aI9
aI14
aI24
aa(lp962
I12
aI28
aI9
aI17
aa(lp963
I15
aI25
aI25
aI1
aa(lp964
I4
aI6
aI28
aI28
aa(lp965
I9
aI23
aI16
aI18
aa(lp966
I9
aI13
aI33
aI11
aa(lp967
I4
aI15
aI18
aI29
aa(lp968
I7
aI12
aI33
aI14
aa(lp969
I26
aI23
aI7
aI10
aa(lp970
I8
aI44
aI2
aI12
aa(lp971
I10
aI18
aI34
aI4
aa(lp972
I11
aI13
aI31
aI11
aa(lp973
I15
aI15
aI5
aI31
aa(lp974
I30
aI33
aI2
aI1
aa(lp975
I16
aI17
aI11
aI22
aa(lp976
I38
aI27
aI1
aI0
aa(lp977
I18
aI18
aI26
aI4
aa(lp978
I1
aI0
aI3
aI62
aa(lp979
I26
aI15
aI6
aI19
aa(lp980
I16
aI35
aI9
aI6
aa(lp981
I22
aI24
aI9
aI11
aa(lp982
I26
aI17
aI3
aI20
aa(lp983
I22
aI26
aI16
aI2
aa(lp984
I32
aI10
aI4
aI20
aa(lp985
I25
aI7
aI21
aI13
aa(lp986
I15
aI10
aI6
aI35
aa(lp987
I23
aI23
aI18
aI2
aa(lp988
I32
aI5
aI14
aI15
aa(lp989
I17
aI30
aI3
aI16
aa(lp990
I23
aI18
aI9
aI16
aa(lp991
I0
aI43
aI22
aI1
aa(lp992
I10
aI14
aI42
aI0
aa(lp993
I10
aI12
aI26
aI18
aa(lp994
I7
aI30
aI19
aI10
aa(lp995
I20
aI19
aI9
aI18
aa(lp996
I6
aI10
aI10
aI40
aa(lp997
I9
aI15
aI9
aI33
aa(lp998
I17
aI22
aI14
aI13
aa(lp999
I12
aI17
aI14
aI23
aa(lp1000
I21
aI11
aI19
aI15
aa(lp1001
I8
aI12
aI26
aI20
aa(lp1002
I13
aI15
aI14
aI24
aa(lp1003
I9
aI14
aI31
aI12
aa(lp1004
I0
aI64
aI0
aI2
aa(lp1005
I14
aI24
aI13
aI15
aa(lp1006
I0
aI27
aI39
aI0
aa(lp1007
I8
aI10
aI10
aI38
aa(lp1008
I26
aI11
aI22
aI7
aa(lp1009
I22
aI20
aI24
aI0
aa(lp1010
I6
aI7
aI20
aI33
aa(lp1011
I15
aI18
aI14
aI19
aa(lp1012
I21
aI16
aI14
aI15
aaa(lp1013
(lp1014
I0
aI1
aI1
aI4
aa(lp1015
I1
aI2
aI3
aI0
aa(lp1016
I3
aI3
aI0
aI0
aa(lp1017
I1
aI1
aI2
aI2
aa(lp1018
I2
aI0
aI1
aI3
aa(lp1019
I1
aI1
aI2
aI2
aa(lp1020
I0
aI0
aI6
aI0
aa(lp1021
I4
aI0
aI0
aI2
aa(lp1022
I0
aI4
aI2
aI0
aa(lp1023
I4
aI0
aI1
aI1
aa(lp1024
I3
aI0
aI3
aI0
aa(lp1025
I2
aI3
aI1
aI0
aa(lp1026
I0
aI3
aI0
aI3
aa(lp1027
I1
aI2
aI0
aI3
aa(lp1028
I0
aI2
aI1
aI3
aa(lp1029
I3
aI0
aI2
aI1
aa(lp1030
I0
aI0
aI6
aI0
aa(lp1031
I0
aI0
aI5
aI1
aa(lp1032
I0
aI2
aI0
aI4
aa(lp1033
I2
aI1
aI1
aI2
aa(lp1034
I4
aI1
aI0
aI1
aa(lp1035
I0
aI1
aI0
aI5
aa(lp1036
I3
aI0
aI1
aI2
aa(lp1037
I0
aI0
aI6
aI0
aa(lp1038
I1
aI5
aI0
aI0
aa(lp1039
I5
aI0
aI1
aI0
aa(lp1040
I0
aI1
aI4
aI1
aa(lp1041
I4
aI1
aI0
aI1
aa(lp1042
I2
aI0
aI4
aI0
aa(lp1043
I2
aI0
aI2
aI2
aa(lp1044
I1
aI1
aI1
aI3
aa(lp1045
I0
aI0
aI4
aI2
aa(lp1046
I0
aI0
aI2
aI4
aa(lp1047
I2
aI1
aI1
aI2
aa(lp1048
I1
aI2
aI1
aI2
aa(lp1049
I0
aI0
aI1
aI5
aa(lp1050
I1
aI4
aI1
aI0
aa(lp1051
I0
aI1
aI3
aI2
aa(lp1052
I0
aI3
aI0
aI3
aa(lp1053
I1
aI1
aI2
aI2
aa(lp1054
I2
aI3
aI1
aI0
aa(lp1055
I3
aI0
aI1
aI2
aa(lp1056
I0
aI1
aI1
aI4
aa(lp1057
I1
aI1
aI1
aI3
aa(lp1058
I5
aI0
aI1
aI0
aa(lp1059
I0
aI2
aI3
aI1
aa(lp1060
I2
aI1
aI1
aI2
aa(lp1061
I0
aI4
aI1
aI1
aa(lp1062
I1
aI0
aI1
aI4
aa(lp1063
I2
aI0
aI2
aI2
aa(lp1064
I0
aI6
aI0
aI0
aa(lp1065
I2
aI2
aI1
aI1
aa(lp1066
I0
aI2
aI1
aI3
aa(lp1067
I1
aI0
aI2
aI3
aa(lp1068
I1
aI4
aI0
aI1
aa(lp1069
I0
aI1
aI3
aI2
aa(lp1070
I2
aI3
aI0
aI1
aa(lp1071
I0
aI3
aI0
aI3
aa(lp1072
I1
aI4
aI1
aI0
aa(lp1073
I0
aI2
aI0
aI4
aa(lp1074
I2
aI2
aI0
aI2
aa(lp1075
I2
aI3
aI1
aI0
aa(lp1076
I2
aI0
aI2
aI2
aa(lp1077
I0
aI1
aI1
aI4
aa(lp1078
I1
aI1
aI3
aI1
aa(lp1079
I1
aI2
aI1
aI2
aa(lp1080
I4
aI0
aI0
aI2
aa(lp1081
I2
aI2
aI1
aI1
aa(lp1082
I0
aI3
aI3
aI0
aa(lp1083
I2
aI2
aI1
aI1
aa(lp1084
I2
aI2
aI2
aI0
aa(lp1085
I1
aI0
aI0
aI5
aa(lp1086
I4
aI0
aI2
aI0
aa(lp1087
I2
aI0
aI0
aI4
aa(lp1088
I2
aI1
aI3
aI0
aa(lp1089
I3
aI0
aI1
aI2
aa(lp1090
I4
aI1
aI0
aI1
aa(lp1091
I2
aI2
aI0
aI2
aa(lp1092
I1
aI2
aI3
aI0
aa(lp1093
I1
aI0
aI0
aI5
aa(lp1094
I2
aI0
aI2
aI2
aa(lp1095
I0
aI0
aI5
aI1
aa(lp1096
I2
aI4
aI0
aI0
aa(lp1097
I1
aI2
aI0
aI3
aa(lp1098
I1
aI1
aI1
aI3
aa(lp1099
I2
aI1
aI2
aI1
aa(lp1100
I1
aI1
aI1
aI3
aa(lp1101
I0
aI3
aI3
aI0
aa(lp1102
I0
aI4
aI0
aI2
aa(lp1103
I0
aI3
aI0
aI3
aa(lp1104
I2
aI1
aI1
aI2
aa(lp1105
I1
aI2
aI2
aI1
aa(lp1106
I0
aI2
aI1
aI3
aa(lp1107
I2
aI2
aI0
aI2
aa(lp1108
I0
aI0
aI3
aI3
aa(lp1109
I0
aI1
aI5
aI0
aa(lp1110
I1
aI5
aI0
aI0
aa(lp1111
I0
aI2
aI1
aI3
aa(lp1112
I0
aI3
aI2
aI1
aa(lp1113
I3
aI1
aI2
aI0
aaa(lp1114
(lp1115
I1
aI0
aI0
aI0
aa(lp1116
I1
aI0
aI0
aI0
aa(lp1117
I0
aI0
aI0
aI1
aa(lp1118
I0
aI0
aI1
aI0
aa(lp1119
I0
aI0
aI0
aI1
aa(lp1120
I0
aI1
aI0
aI0
aa(lp1121
I1
aI0
aI0
aI0
aa(lp1122
I1
aI0
aI0
aI0
aa(lp1123
I1
aI0
aI0
aI0
aa(lp1124
I0
aI0
aI0
aI1
aa(lp1125
I0
aI1
aI0
aI0
aa(lp1126
I0
aI0
aI1
aI0
aa(lp1127
I0
aI0
aI1
aI0
aa(lp1128
I0
aI0
aI1
aI0
aa(lp1129
I0
aI1
aI0
aI0
aa(lp1130
I0
aI0
aI1
aI0
aa(lp1131
I0
aI1
aI0
aI0
aa(lp1132
I0
aI0
aI1
aI0
aa(lp1133
I0
aI1
aI0
aI0
aa(lp1134
I0
aI0
aI1
aI0
aa(lp1135
I0
aI0
aI0
aI1
aa(lp1136
I0
aI1
aI0
aI0
aa(lp1137
I1
aI0
aI0
aI0
aa(lp1138
I0
aI1
aI0
aI0
aa(lp1139
I0
aI1
aI0
aI0
aa(lp1140
I0
aI0
aI0
aI1
aa(lp1141
I1
aI0
aI0
aI0
aa(lp1142
I0
aI0
aI1
aI0
aa(lp1143
I1
aI0
aI0
aI0
aa(lp1144
I0
aI1
aI0
aI0
aa(lp1145
I0
aI1
aI0
aI0
aa(lp1146
I0
aI1
aI0
aI0
aa(lp1147
I0
aI0
aI1
aI0
aa(lp1148
I0
aI1
aI0
aI0
aa(lp1149
I1
aI0
aI0
aI0
aa(lp1150
I1
aI0
aI0
aI0
aa(lp1151
I0
aI0
aI1
aI0
aa(lp1152
I0
aI0
aI1
aI0
aa(lp1153
I1
aI0
aI0
aI0
aa(lp1154
I0
aI1
aI0
aI0
aa(lp1155
I1
aI0
aI0
aI0
aa(lp1156
I1
aI0
aI0
aI0
aa(lp1157
I0
aI1
aI0
aI0
aa(lp1158
I0
aI0
aI1
aI0
aa(lp1159
I0
aI0
aI1
aI0
aa(lp1160
I0
aI1
aI0
aI0
aa(lp1161
I0
aI1
aI0
aI0
aa(lp1162
I1
aI0
aI0
aI0
aa(lp1163
I0
aI1
aI0
aI0
aa(lp1164
I1
aI0
aI0
aI0
aa(lp1165
I1
aI0
aI0
aI0
aa(lp1166
I0
aI0
aI1
aI0
aa(lp1167
I0
aI0
aI0
aI1
aa(lp1168
I1
aI0
aI0
aI0
aa(lp1169
I0
aI0
aI0
aI1
aa(lp1170
I0
aI0
aI1
aI0
aa(lp1171
I1
aI0
aI0
aI0
aa(lp1172
I0
aI1
aI0
aI0
aa(lp1173
I0
aI0
aI0
aI1
aa(lp1174
I0
aI0
aI0
aI1
aa(lp1175
I0
aI0
aI1
aI0
aa(lp1176
I1
aI0
aI0
aI0
aa(lp1177
I1
aI0
aI0
aI0
aa(lp1178
I0
aI0
aI0
aI1
aa(lp1179
I0
aI1
aI0
aI0
aa(lp1180
I1
aI0
aI0
aI0
aa(lp1181
I1
aI0
aI0
aI0
aa(lp1182
I1
aI0
aI0
aI0
aa(lp1183
I0
aI0
aI0
aI1
aa(lp1184
I0
aI0
aI0
aI1
aa(lp1185
I1
aI0
aI0
aI0
aa(lp1186
I1
aI0
aI0
aI0
aa(lp1187
I1
aI0
aI0
aI0
aa(lp1188
I0
aI1
aI0
aI0
aa(lp1189
I1
aI0
aI0
aI0
aa(lp1190
I0
aI0
aI0
aI1
aa(lp1191
I0
aI0
aI0
aI1
aa(lp1192
I0
aI0
aI1
aI0
aa(lp1193
I0
aI0
aI0
aI1
aa(lp1194
I1
aI0
aI0
aI0
aa(lp1195
I1
aI0
aI0
aI0
aa(lp1196
I0
aI0
aI1
aI0
aa(lp1197
I1
aI0
aI0
aI0
aa(lp1198
I0
aI0
aI1
aI0
aa(lp1199
I1
aI0
aI0
aI0
aa(lp1200
I0
aI1
aI0
aI0
aa(lp1201
I0
aI0
aI1
aI0
aa(lp1202
I0
aI0
aI0
aI1
aa(lp1203
I1
aI0
aI0
aI0
aa(lp1204
I0
aI0
aI1
aI0
aa(lp1205
I1
aI0
aI0
aI0
aa(lp1206
I1
aI0
aI0
aI0
aa(lp1207
I0
aI0
aI1
aI0
aa(lp1208
I0
aI0
aI0
aI1
aa(lp1209
I0
aI0
aI0
aI1
aa(lp1210
I0
aI0
aI1
aI0
aa(lp1211
I0
aI0
aI1
aI0
aa(lp1212
I0
aI0
aI1
aI0
aa(lp1213
I0
aI1
aI0
aI0
aa(lp1214
I1
aI0
aI0
aI0
aaa(lp1215
(lp1216
I0
aI0
aI0
aI0
aa(lp1217
I0
aI0
aI0
aI0
aa(lp1218
I0
aI0
aI0
aI0
aa(lp1219
I0
aI0
aI0
aI0
aa(lp1220
I0
aI0
aI0
aI0
aa(lp1221
I0
aI0
aI0
aI0
aa(lp1222
I0
aI0
aI0
aI0
aa(lp1223
I0
aI0
aI0
aI0
aa(lp1224
I0
aI0
aI0
aI0
aa(lp1225
I0
aI0
aI0
aI0
aa(lp1226
I0
aI0
aI0
aI0
aa(lp1227
I0
aI0
aI0
aI0
aa(lp1228
I0
aI0
aI0
aI0
aa(lp1229
I0
aI0
aI0
aI0
aa(lp1230
I0
aI0
aI0
aI0
aa(lp1231
I0
aI0
aI0
aI0
aa(lp1232
I0
aI0
aI0
aI0
aa(lp1233
I0
aI0
aI0
aI0
aa(lp1234
I0
aI0
aI0
aI0
aa(lp1235
I0
aI0
aI0
aI0
aa(lp1236
I0
aI0
aI0
aI0
aa(lp1237
I0
aI0
aI0
aI0
aa(lp1238
I0
aI0
aI0
aI0
aa(lp1239
I0
aI0
aI0
aI0
aa(lp1240
I0
aI0
aI0
aI0
aa(lp1241
I0
aI0
aI0
aI0
aa(lp1242
I0
aI0
aI0
aI0
aa(lp1243
I0
aI0
aI0
aI0
aa(lp1244
I0
aI0
aI0
aI0
aa(lp1245
I0
aI0
aI0
aI0
aa(lp1246
I0
aI0
aI0
aI0
aa(lp1247
I0
aI0
aI0
aI0
aa(lp1248
I0
aI0
aI0
aI0
aa(lp1249
I0
aI0
aI0
aI0
aa(lp1250
I0
aI0
aI0
aI0
aa(lp1251
I0
aI0
aI0
aI0
aa(lp1252
I0
aI0
aI0
aI0
aa(lp1253
I0
aI0
aI0
aI0
aa(lp1254
I0
aI0
aI0
aI0
aa(lp1255
I0
aI0
aI0
aI0
aa(lp1256
I0
aI0
aI0
aI0
aa(lp1257
I0
aI0
aI0
aI0
aa(lp1258
I0
aI0
aI0
aI0
aa(lp1259
I0
aI0
aI0
aI0
aa(lp1260
I0
aI0
aI0
aI0
aa(lp1261
I0
aI0
aI0
aI0
aa(lp1262
I0
aI0
aI0
aI0
aa(lp1263
I0
aI0
aI0
aI0
aa(lp1264
I0
aI0
aI0
aI0
aa(lp1265
I0
aI0
aI0
aI0
aa(lp1266
I0
aI0
aI0
aI0
aa(lp1267
I0
aI0
aI0
aI0
aa(lp1268
I0
aI0
aI0
aI0
aa(lp1269
I0
aI0
aI0
aI0
aa(lp1270
I0
aI0
aI0
aI0
aa(lp1271
I0
aI0
aI0
aI0
aa(lp1272
I0
aI0
aI0
aI0
aa(lp1273
I0
aI0
aI0
aI0
aa(lp1274
I0
aI0
aI0
aI0
aa(lp1275
I0
aI0
aI0
aI0
aa(lp1276
I0
aI0
aI0
aI0
aa(lp1277
I0
aI0
aI0
aI0
aa(lp1278
I0
aI0
aI0
aI0
aa(lp1279
I0
aI0
aI0
aI0
aa(lp1280
I0
aI0
aI0
aI0
aa(lp1281
I0
aI0
aI0
aI0
aa(lp1282
I0
aI0
aI0
aI0
aa(lp1283
I0
aI0
aI0
aI0
aa(lp1284
I0
aI0
aI0
aI0
aa(lp1285
I0
aI0
aI0
aI0
aa(lp1286
I0
aI0
aI0
aI0
aa(lp1287
I0
aI0
aI0
aI0
aa(lp1288
I0
aI0
aI0
aI0
aa(lp1289
I0
aI0
aI0
aI0
aa(lp1290
I0
aI0
aI0
aI0
aa(lp1291
I0
aI0
aI0
aI0
aa(lp1292
I0
aI0
aI0
aI0
aa(lp1293
I0
aI0
aI0
aI0
aa(lp1294
I0
aI0
aI0
aI0
aa(lp1295
I0
aI0
aI0
aI0
aa(lp1296
I0
aI0
aI0
aI0
aa(lp1297
I0
aI0
aI0
aI0
aa(lp1298
I0
aI0
aI0
aI0
aa(lp1299
I0
aI0
aI0
aI0
aa(lp1300
I0
aI0
aI0
aI0
aa(lp1301
I0
aI0
aI0
aI0
aa(lp1302
I0
aI0
aI0
aI0
aa(lp1303
I0
aI0
aI0
aI0
aa(lp1304
I0
aI0
aI0
aI0
aa(lp1305
I0
aI0
aI0
aI0
aa(lp1306
I0
aI0
aI0
aI0
aa(lp1307
I0
aI0
aI0
aI0
aa(lp1308
I0
aI0
aI0
aI0
aa(lp1309
I0
aI0
aI0
aI0
aa(lp1310
I0
aI0
aI0
aI0
aa(lp1311
I0
aI0
aI0
aI0
aa(lp1312
I0
aI0
aI0
aI0
aa(lp1313
I0
aI0
aI0
aI0
aa(lp1314
I0
aI0
aI0
aI0
aa(lp1315
I0
aI0
aI0
aI0
aaa(lp1316
(lp1317
I0
aI1
aI0
aI0
aa(lp1318
I0
aI1
aI0
aI0
aa(lp1319
I0
aI0
aI1
aI0
aa(lp1320
I0
aI1
aI0
aI0
aa(lp1321
I0
aI1
aI0
aI0
aa(lp1322
I0
aI0
aI1
aI0
aa(lp1323
I0
aI0
aI1
aI0
aa(lp1324
I0
aI0
aI1
aI0
aa(lp1325
I1
aI0
aI0
aI0
aa(lp1326
I0
aI1
aI0
aI0
aa(lp1327
I1
aI0
aI0
aI0
aa(lp1328
I0
aI0
aI0
aI1
aa(lp1329
I0
aI0
aI0
aI1
aa(lp1330
I0
aI0
aI0
aI1
aa(lp1331
I0
aI0
aI1
aI0
aa(lp1332
I0
aI0
aI1
aI0
aa(lp1333
I0
aI0
aI1
aI0
aa(lp1334
I0
aI0
aI0
aI1
aa(lp1335
I0
aI0
aI1
aI0
aa(lp1336
I0
aI0
aI1
aI0
aa(lp1337
I0
aI0
aI0
aI1
aa(lp1338
I0
aI0
aI1
aI0
aa(lp1339
I0
aI0
aI1
aI0
aa(lp1340
I0
aI0
aI1
aI0
aa(lp1341
I0
aI1
aI0
aI0
aa(lp1342
I1
aI0
aI0
aI0
aa(lp1343
I0
aI0
aI0
aI1
aa(lp1344
I0
aI0
aI0
aI1
aa(lp1345
I0
aI0
aI0
aI1
aa(lp1346
I0
aI0
aI1
aI0
aa(lp1347
I1
aI0
aI0
aI0
aa(lp1348
I0
aI1
aI0
aI0
aa(lp1349
I0
aI0
aI0
aI1
aa(lp1350
I0
aI0
aI0
aI1
aa(lp1351
I0
aI0
aI0
aI1
aa(lp1352
I0
aI0
aI0
aI1
aa(lp1353
I0
aI1
aI0
aI0
aa(lp1354
I0
aI0
aI0
aI1
aa(lp1355
I0
aI0
aI0
aI1
aa(lp1356
I1
aI0
aI0
aI0
aa(lp1357
I0
aI0
aI0
aI1
aa(lp1358
I0
aI0
aI0
aI1
aa(lp1359
I0
aI1
aI0
aI0
aa(lp1360
I1
aI0
aI0
aI0
aa(lp1361
I1
aI0
aI0
aI0
aa(lp1362
I1
aI0
aI0
aI0
aa(lp1363
I1
aI0
aI0
aI0
aa(lp1364
I0
aI0
aI1
aI0
aa(lp1365
I0
aI1
aI0
aI0
aa(lp1366
I0
aI1
aI0
aI0
aa(lp1367
I0
aI1
aI0
aI0
aa(lp1368
I1
aI0
aI0
aI0
aa(lp1369
I0
aI0
aI1
aI0
aa(lp1370
I0
aI0
aI0
aI1
aa(lp1371
I0
aI1
aI0
aI0
aa(lp1372
I0
aI0
aI0
aI1
aa(lp1373
I0
aI0
aI0
aI1
aa(lp1374
I0
aI1
aI0
aI0
aa(lp1375
I0
aI0
aI1
aI0
aa(lp1376
I0
aI1
aI0
aI0
aa(lp1377
I0
aI0
aI0
aI1
aa(lp1378
I1
aI0
aI0
aI0
aa(lp1379
I0
aI0
aI1
aI0
aa(lp1380
I0
aI0
aI1
aI0
aa(lp1381
I0
aI1
aI0
aI0
aa(lp1382
I0
aI0
aI1
aI0
aa(lp1383
I1
aI0
aI0
aI0
aa(lp1384
I1
aI0
aI0
aI0
aa(lp1385
I0
aI0
aI1
aI0
aa(lp1386
I1
aI0
aI0
aI0
aa(lp1387
I1
aI0
aI0
aI0
aa(lp1388
I1
aI0
aI0
aI0
aa(lp1389
I1
aI0
aI0
aI0
aa(lp1390
I0
aI0
aI1
aI0
aa(lp1391
I1
aI0
aI0
aI0
aa(lp1392
I0
aI1
aI0
aI0
aa(lp1393
I0
aI1
aI0
aI0
aa(lp1394
I0
aI0
aI1
aI0
aa(lp1395
I0
aI1
aI0
aI0
aa(lp1396
I0
aI0
aI1
aI0
aa(lp1397
I0
aI0
aI0
aI1
aa(lp1398
I0
aI0
aI1
aI0
aa(lp1399
I0
aI1
aI0
aI0
aa(lp1400
I0
aI0
aI1
aI0
aa(lp1401
I0
aI0
aI0
aI1
aa(lp1402
I0
aI1
aI0
aI0
aa(lp1403
I0
aI0
aI1
aI0
aa(lp1404
I1
aI0
aI0
aI0
aa(lp1405
I0
aI0
aI1
aI0
aa(lp1406
I0
aI0
aI1
aI0
aa(lp1407
I0
aI1
aI0
aI0
aa(lp1408
I0
aI0
aI1
aI0
aa(lp1409
I0
aI1
aI0
aI0
aa(lp1410
I0
aI0
aI0
aI1
aa(lp1411
I0
aI0
aI0
aI1
aa(lp1412
I1
aI0
aI0
aI0
aa(lp1413
I0
aI1
aI0
aI0
aa(lp1414
I1
aI0
aI0
aI0
aa(lp1415
I0
aI1
aI0
aI0
aa(lp1416
I1
aI0
aI0
aI0
aaasS'posCount'
p1417
(lp1418
I100
aI100
aI100
aI100
aI100
aI100
aI100
aI100
aI100
aI100
aI100
aI100
aI100
aI100
asS'features'
p1419
I100
sS'tu'
p1420
I0
sS'pos'
p1421
(lp1422
(lp1423
I0
aI1
aI2
aI3
aI4
aI5
aI6
aI7
aI8
aI9
aI10
aI11
aI12
aI13
aI14
aI15
aI16
aI17
aI18
aI19
aI20
aI21
aI22
aI23
aI24
aI25
aI26
aI27
aI28
aI29
aI30
aI31
aI32
aI33
aI34
aI35
aI36
aI37
aI38
aI39
aI40
aI41
aI42
aI43
aI44
aI45
aI46
aI47
aI48
aI49
aI50
aI51
aI52
aI53
aI54
aI55
aI56
aI57
aI58
aI59
aI60
aI61
aI62
aI63
aI64
aI65
aI66
aI67
aI68
aI69
aI70
aI71
aI72
aI73
aI74
aI75
aI76
aI77
aI78
aI79
aI80
aI81
aI82
aI83
aI84
aI85
aI86
aI87
aI88
aI89
aI90
aI91
aI92
aI93
aI94
aI95
aI96
aI97
aI98
aI99
aa(lp1424
I0
aI1
aI2
aI3
aI4
aI5
aI6
aI7
aI8
aI9
aI10
aI11
aI12
aI13
aI14
aI15
aI16
aI17
aI18
aI19
aI20
aI21
aI22
aI23
aI24
aI25
aI26
aI27
aI28
aI29
aI30
aI31
aI32
aI33
aI34
aI35
aI36
aI37
aI38
aI39
aI40
aI41
aI42
aI43
aI44
aI45
aI46
aI47
aI48
aI49
aI50
aI51
aI52
aI53
aI54
aI55
aI56
aI57
aI58
aI59
aI60
aI61
aI62
aI63
aI64
aI65
aI66
aI67
aI68
aI69
aI70
aI71
aI72
aI73
aI74
aI75
aI76
aI77
aI78
aI79
aI80
aI81
aI82
aI83
aI84
aI85
aI86
aI87
aI88
aI89
aI90
aI91
aI92
aI93
aI94
aI95
aI96
aI97
aI98
aI99
aa(lp1425
I0
aI1
aI2
aI3
aI4
aI5
aI6
aI7
aI8
aI9
aI10
aI11
aI12
aI13
aI14
aI15
aI16
aI17
aI18
aI19
aI20
aI21
aI22
aI23
aI24
aI25
aI26
aI27
aI28
aI29
aI30
aI31
aI32
aI33
aI34
aI35
aI36
aI37
aI38
aI39
aI40
aI41
aI42
aI43
aI44
aI45
aI46
aI47
aI48
aI49
aI50
aI51
aI52
aI53
aI54
aI55
aI56
aI57
aI58
aI59
aI60
aI61
aI62
aI63
aI64
aI65
aI66
aI67
aI68
aI69
aI70
aI71
aI72
aI73
aI74
aI75
aI76
aI77
aI78
aI79
aI80
aI81
aI82
aI83
aI84
aI85
aI86
aI87
aI88
aI89
aI90
aI91
aI92
aI93
aI94
aI95
aI96
aI97
aI98
aI99
aa(lp1426
I0
aI1
aI2
aI3
aI4
aI5
aI6
aI7
aI8
aI9
aI10
aI11
aI12
aI13
aI14
aI15
aI16
aI17
aI18
aI19
aI20
aI21
aI22
aI23
aI24
aI25
aI26
aI27
aI28
aI29
aI30
aI31
aI32
aI33
aI34
aI35
aI36
aI37
aI38
aI39
aI40
aI41
aI42
aI43
aI44
aI45
aI46
aI47
aI48
aI49
aI50
aI51
aI52
aI53
aI54
aI55
aI56
aI57
aI58
aI59
aI60
aI61
aI62
aI63
aI64
aI65
aI66
aI67
aI68
aI69
aI70
aI71
aI72
aI73
aI74
aI75
aI76
aI77
aI78
aI79
aI80
aI81
aI82
aI83
aI84
aI85
aI86
aI87
aI88
aI89
aI90
aI91
aI92
aI93
aI94
aI95
aI96
aI97
aI98
aI99
aa(lp1427
I0
aI1
aI2
aI3
aI4
aI5
aI6
aI7
aI8
aI9
aI10
aI11
aI12
aI13
aI14
aI15
aI16
aI17
aI18
aI19
aI20
aI21
aI22
aI23
aI24
aI25
aI26
aI27
aI28
aI29
aI30
aI31
aI32
aI33
aI34
aI35
aI36
aI37
aI38
aI39
aI40
aI41
aI42
aI43
aI44
aI45
aI46
aI47
aI48
aI49
aI50
aI51
aI52
aI53
aI54
aI55
aI56
aI57
aI58
aI59
aI60
aI61
aI62
aI63
aI64
aI65
aI66
aI67
aI68
aI69
aI70
aI71
aI72
aI73
aI74
aI75
aI76
aI77
aI78
aI79
aI80
aI81
aI82
aI83
aI84
aI85
aI86
aI87
aI88
aI89
aI90
aI91
aI92
aI93
aI94
aI95
aI96
aI97
aI98
aI99
aa(lp1428
I0
aI1
aI2
aI3
aI4
aI5
aI6
aI7
aI8
aI9
aI10
aI11
aI12
aI13
aI14
aI15
aI16
aI17
aI18
aI19
aI20
aI21
aI22
aI23
aI24
aI25
aI26
aI27
aI28
aI29
aI30
aI31
aI32
aI33
aI34
aI35
aI36
aI37
aI38
aI39
aI40
aI41
aI42
aI43
aI44
aI45
aI46
aI47
aI48
aI49
aI50
aI51
aI52
aI53
aI54
aI55
aI56
aI57
aI58
aI59
aI60
aI61
aI62
aI63
aI64
aI65
aI66
aI67
aI68
aI69
aI70
aI71
aI72
aI73
aI74
aI75
aI76
aI77
aI78
aI79
aI80
aI81
aI82
aI83
aI84
aI85
aI86
aI87
aI88
aI89
aI90
aI91
aI92
aI93
aI94
aI95
aI96
aI97
aI98
aI99
aa(lp1429
I0
aI1
aI2
aI3
aI4
aI5
aI6
aI7
aI8
aI9
aI10
aI11
aI12
aI13
aI14
aI15
aI16
aI17
aI18
aI19
aI20
aI21
aI22
aI23
aI24
aI25
aI26
aI27
aI28
aI29
aI30
aI31
aI32
aI33
aI34
aI35
aI36
aI37
aI38
aI39
aI40
aI41
aI42
aI43
aI44
aI45
aI46
aI47
aI48
aI49
aI50
aI51
aI52
aI53
aI54
aI55
aI56
aI57
aI58
aI59
aI60
aI61
aI62
aI63
aI64
aI65
aI66
aI67
aI68
aI69
aI70
aI71
aI72
aI73
aI74
aI75
aI76
aI77
aI78
aI79
aI80
aI81
aI82
aI83
aI84
aI85
aI86
aI87
aI88
aI89
aI90
aI91
aI92
aI93
aI94
aI95
aI96
aI97
aI98
aI99
aa(lp1430
I0
aI1
aI2
aI3
aI4
aI5
aI6
aI7
aI8
aI9
aI10
aI11
aI12
aI13
aI14
aI15
aI16
aI17
aI18
aI19
aI20
aI21
aI22
aI23
aI24
aI25
aI26
aI27
aI28
aI29
aI30
aI31
aI32
aI33
aI34
aI35
aI36
aI37
aI38
aI39
aI40
aI41
aI42
aI43
aI44
aI45
aI46
aI47
aI48
aI49
aI50
aI51
aI52
aI53
aI54
aI55
aI56
aI57
aI58
aI59
aI60
aI61
aI62
aI63
aI64
aI65
aI66
aI67
aI68
aI69
aI70
aI71
aI72
aI73
aI74
aI75
aI76
aI77
aI78
aI79
aI80
aI81
aI82
aI83
aI84
aI85
aI86
aI87
aI88
aI89
aI90
aI91
aI92
aI93
aI94
aI95
aI96
aI97
aI98
aI99
aa(lp1431
I0
aI1
aI2
aI3
aI4
aI5
aI6
aI7
aI8
aI9
aI10
aI11
aI12
aI13
aI14
aI15
aI16
aI17
aI18
aI19
aI20
aI21
aI22
aI23
aI24
aI25
aI26
aI27
aI28
aI29
aI30
aI31
aI32
aI33
aI34
aI35
aI36
aI37
aI38
aI39
aI40
aI41
aI42
aI43
aI44
aI45
aI46
aI47
aI48
aI49
aI50
aI51
aI52
aI53
aI54
aI55
aI56
aI57
aI58
aI59
aI60
aI61
aI62
aI63
aI64
aI65
aI66
aI67
aI68
aI69
aI70
aI71
aI72
aI73
aI74
aI75
aI76
aI77
aI78
aI79
aI80
aI81
aI82
aI83
aI84
aI85
aI86
aI87
aI88
aI89
aI90
aI91
aI92
aI93
aI94
aI95
aI96
aI97
aI98
aI99
aa(lp1432
I0
aI1
aI2
aI3
aI4
aI5
aI6
aI7
aI8
aI9
aI10
aI11
aI12
aI13
aI14
aI15
aI16
aI17
aI18
aI19
aI20
aI21
aI22
aI23
aI24
aI25
aI26
aI27
aI28
aI29
aI30
aI31
aI32
aI33
aI34
aI35
aI36
aI37
aI38
aI39
aI40
aI41
aI42
aI43
aI44
aI45
aI46
aI47
aI48
aI49
aI50
aI51
aI52
aI53
aI54
aI55
aI56
aI57
aI58
aI59
aI60
aI61
aI62
aI63
aI64
aI65
aI66
aI67
aI68
aI69
aI70
aI71
aI72
aI73
aI74
aI75
aI76
aI77
aI78
aI79
aI80
aI81
aI82
aI83
aI84
aI85
aI86
aI87
aI88
aI89
aI90
aI91
aI92
aI93
aI94
aI95
aI96
aI97
aI98
aI99
aa(lp1433
I0
aI1
aI2
aI3
aI4
aI5
aI6
aI7
aI8
aI9
aI10
aI11
aI12
aI13
aI14
aI15
aI16
aI17
aI18
aI19
aI20
aI21
aI22
aI23
aI24
aI25
aI26
aI27
aI28
aI29
aI30
aI31
aI32
aI33
aI34
aI35
aI36
aI37
aI38
aI39
aI40
aI41
aI42
aI43
aI44
aI45
aI46
aI47
aI48
aI49
aI50
aI51
aI52
aI53
aI54
aI55
aI56
aI57
aI58
aI59
aI60
aI61
aI62
aI63
aI64
aI65
aI66
aI67
aI68
aI69
aI70
aI71
aI72
aI73
aI74
aI75
aI76
aI77
aI78
aI79
aI80
aI81
aI82
aI83
aI84
aI85
aI86
aI87
aI88
aI89
aI90
aI91
aI92
aI93
aI94
aI95
aI96
aI97
aI98
aI99
aa(lp1434
I0
aI1
aI2
aI3
aI4
aI5
aI6
aI7
aI8
aI9
aI10
aI11
aI12
aI13
aI14
aI15
aI16
aI17
aI18
aI19
aI20
aI21
aI22
aI23
aI24
aI25
aI26
aI27
aI28
aI29
aI30
aI31
aI32
aI33
aI34
aI35
aI36
aI37
aI38
aI39
aI40
aI41
aI42
aI43
aI44
aI45
aI46
aI47
aI48
aI49
aI50
aI51
aI52
aI53
aI54
aI55
aI56
aI57
aI58
aI59
aI60
aI61
aI62
aI63
aI64
aI65
aI66
aI67
aI68
aI69
aI70
aI71
aI72
aI73
aI74
aI75
aI76
aI77
aI78
aI79
aI80
aI81
aI82
aI83
aI84
aI85
aI86
aI87
aI88
aI89
aI90
aI91
aI92
aI93
aI94
aI95
aI96
aI97
aI98
aI99
aa(lp1435
I0
aI1
aI2
aI3
aI4
aI5
aI6
aI7
aI8
aI9
aI10
aI11
aI12
aI13
aI14
aI15
aI16
aI17
aI18
aI19
aI20
aI21
aI22
aI23
aI24
aI25
aI26
aI27
aI28
aI29
aI30
aI31
aI32
aI33
aI34
aI35
aI36
aI37
aI38
aI39
aI40
aI41
aI42
aI43
aI44
aI45
aI46
aI47
aI48
aI49
aI50
aI51
aI52
aI53
aI54
aI55
aI56
aI57
aI58
aI59
aI60
aI61
aI62
aI63
aI64
aI65
aI66
aI67
aI68
aI69
aI70
aI71
aI72
aI73
aI74
aI75
aI76
aI77
aI78
aI79
aI80
aI81
aI82
aI83
aI84
aI85
aI86
aI87
aI88
aI89
aI90
aI91
aI92
aI93
aI94
aI95
aI96
aI97
aI98
aI99
aa(lp1436
I0
aI1
aI2
aI3
aI4
aI5
aI6
aI7
aI8
aI9
aI10
aI11
aI12
aI13
aI14
aI15
aI16
aI17
aI18
aI19
aI20
aI21
aI22
aI23
aI24
aI25
aI26
aI27
aI28
aI29
aI30
aI31
aI32
aI33
aI34
aI35
aI36
aI37
aI38
aI39
aI40
aI41
aI42
aI43
aI44
aI45
aI46
aI47
aI48
aI49
aI50
aI51
aI52
aI53
aI54
aI55
aI56
aI57
aI58
aI59
aI60
aI61
aI62
aI63
aI64
aI65
aI66
aI67
aI68
aI69
aI70
aI71
aI72
aI73
aI74
aI75
aI76
aI77
aI78
aI79
aI80
aI81
aI82
aI83
aI84
aI85
aI86
aI87
aI88
aI89
aI90
aI91
aI92
aI93
aI94
aI95
aI96
aI97
aI98
aI99
aasS'n'
p1437
I1000
sS'featureValues'
p1438
I4
sS'fnoise'
p1439
(lp1440
I443
aI577
aI360
aI441
aI351
aI554
aI335
aI361
aI685
aI419
aI437
aI138
aI549
aI354
aI494
aI558
aI277
aI430
aI447
aI363
aI591
aI579
aI481
aI567
aI367
aI360
aI691
aI273
aI497
aI631
aI571
aI428
aI515
aI433
aI637
aI450
aI381
aI622
aI757
aI489
aI554
aI482
aI273
aI379
aI293
aI494
aI443
aI563
aI550
aI665
aI427
aI556
aI446
aI517
aI403
aI505
aI419
aI446
aI665
aI692
aI388
aI230
aI502
aI668
aI505
aI407
aI500
aI285
aI438
aI429
aI446
aI475
aI336
aI146
aI621
aI442
aI520
aI345
aI628
aI485
aI294
aI430
aI214
aI432
aI431
aI569
aI332
aI572
aI657
aI482
aI502
aI555
aI291
aI499
aI560
aI432
aI627
aI588
aI518
aI428
asS't'
p1441
(lp1442
I59
aI0
aI113
aI95
aI0
aI150
aI261
aI121
aI127
aI66
aI6
aI1
aI0
aI1
asS'alpha'
p1443
F1.0
sS'lambda'
p1444
F0.0
sS'arch'
p1445
I14
sS'fvNoise'
p1446
(lp1447
(lp1448
I91
aI55
aI245
aI52
aa(lp1449
I226
aI165
aI113
aI73
aa(lp1450
I76
aI123
aI83
aI78
aa(lp1451
I105
aI89
aI118
aI129
aa(lp1452
I60
aI30
aI159
aI102
aa(lp1453
I23
aI217
aI204
aI110
aa(lp1454
I83
aI97
aI116
aI39
aa(lp1455
I62
aI92
aI80
aI127
aa(lp1456
I266
aI201
aI138
aI80
aa(lp1457
I146
aI67
aI126
aI80
aa(lp1458
I74
aI37
aI287
aI39
aa(lp1459
I15
aI25
aI47
aI51
aa(lp1460
I137
aI99
aI74
aI239
aa(lp1461
I47
aI56
aI138
aI113
aa(lp1462
I243
aI97
aI59
aI95
aa(lp1463
I144
aI135
aI108
aI171
aa(lp1464
I39
aI48
aI131
aI59
aa(lp1465
I48
aI93
aI219
aI70
aa(lp1466
I90
aI42
aI89
aI226
aa(lp1467
I71
aI92
aI97
aI103
aa(lp1468
I136
aI184
aI83
aI188
aa(lp1469
I98
aI198
aI42
aI241
aa(lp1470
I54
aI145
aI90
aI192
aa(lp1471
I165
aI200
aI92
aI110
aa(lp1472
I45
aI245
aI11
aI66
aa(lp1473
I165
aI11
aI40
aI144
aa(lp1474
I62
aI79
aI329
aI221
aa(lp1475
I58
aI87
aI31
aI97
aa(lp1476
I86
aI143
aI209
aI59
aa(lp1477
I213
aI57
aI237
aI124
aa(lp1478
I74
aI53
aI112
aI332
aa(lp1479
I40
aI194
aI66
aI128
aa(lp1480
I163
aI31
aI218
aI103
aa(lp1481
I151
aI73
aI41
aI168
aa(lp1482
I108
aI96
aI108
aI325
aa(lp1483
I115
aI54
aI90
aI191
aa(lp1484
I69
aI239
aI40
aI33
aa(lp1485
I63
aI189
aI188
aI182
aa(lp1486
I97
aI213
aI103
aI344
aa(lp1487
I96
aI91
aI195
aI107
aa(lp1488
I220
aI96
aI148
aI90
aa(lp1489
I112
aI30
aI87
aI253
aa(lp1490
I45
aI88
aI92
aI48
aa(lp1491
I115
aI22
aI131
aI111
aa(lp1492
I20
aI136
aI77
aI60
aa(lp1493
I219
aI104
aI101
aI70
aa(lp1494
I157
aI120
aI91
aI75
aa(lp1495
I96
aI144
aI73
aI250
aa(lp1496
I112
aI101
aI121
aI216
aa(lp1497
I94
aI318
aI114
aI139
aa(lp1498
I104
aI184
aI126
aI13
aa(lp1499
I20
aI76
aI233
aI227
aa(lp1500
I57
aI127
aI103
aI159
aa(lp1501
I91
aI100
aI230
aI96
aa(lp1502
I35
aI106
aI112
aI150
aa(lp1503
I81
aI113
aI177
aI134
aa(lp1504
I128
aI109
aI60
aI122
aa(lp1505
I42
aI269
aI59
aI76
aa(lp1506
I189
aI139
aI145
aI192
aa(lp1507
I135
aI129
aI288
aI140
aa(lp1508
I55
aI70
aI55
aI208
aa(lp1509
I97
aI107
aI5
aI21
aa(lp1510
I143
aI126
aI100
aI133
aa(lp1511
I127
aI99
aI173
aI269
aa(lp1512
I78
aI112
aI155
aI160
aa(lp1513
I92
aI70
aI131
aI114
aa(lp1514
I185
aI85
aI49
aI181
aa(lp1515
I77
aI90
aI65
aI53
aa(lp1516
I142
aI134
aI53
aI109
aa(lp1517
I225
aI91
aI24
aI89
aa(lp1518
I145
aI189
aI92
aI20
aa(lp1519
I184
aI96
aI82
aI113
aa(lp1520
I87
aI29
aI168
aI52
aa(lp1521
I34
aI29
aI20
aI63
aa(lp1522
I189
aI177
aI221
aI34
aa(lp1523
I123
aI146
aI63
aI110
aa(lp1524
I100
aI248
aI24
aI148
aa(lp1525
I104
aI90
aI43
aI108
aa(lp1526
I40
aI149
aI170
aI269
aa(lp1527
I174
aI59
aI78
aI174
aa(lp1528
I59
aI58
aI102
aI75
aa(lp1529
I61
aI103
aI187
aI79
aa(lp1530
I51
aI54
aI38
aI71
aa(lp1531
I44
aI57
aI71
aI260
aa(lp1532
I41
aI184
aI91
aI115
aa(lp1533
I141
aI172
aI133
aI123
aa(lp1534
I68
aI91
aI79
aI94
aa(lp1535
I97
aI130
aI190
aI155
aa(lp1536
I83
aI172
aI266
aI136
aa(lp1537
I120
aI102
aI95
aI165
aa(lp1538
I139
aI88
aI136
aI139
aa(lp1539
I60
aI88
aI203
aI204
aa(lp1540
I101
aI92
aI44
aI54
aa(lp1541
I133
aI168
aI137
aI61
aa(lp1542
I96
aI79
aI98
aI287
aa(lp1543
I174
aI89
aI147
aI22
aa(lp1544
I141
aI224
aI258
aI4
aa(lp1545
I85
aI40
aI208
aI255
aa(lp1546
I94
aI143
aI89
aI192
aa(lp1547
I152
aI109
aI78
aI89
aas.