(dp0
S'count'
p1
(lp2
(lp3
(lp4
I12
aI4
aI35
aI8
aa(lp5
I19
aI15
aI19
aI6
aa(lp6
I14
aI20
aI15
aI10
aa(lp7
I19
aI12
aI10
aI18
aa(lp8
I14
aI3
aI27
aI15
aa(lp9
I1
aI24
aI17
aI17
aa(lp10
I13
aI22
aI17
aI7
aa(lp11
I9
aI20
aI11
aI19
aa(lp12
I0
aI20
aI37
aI2
aa(lp13
I26
aI8
aI16
aI9
aa(lp14
I0
aI38
aI0
aI21
aa(lp15
I9
aI12
aI22
aI16
aa(lp16
I15
aI1
aI43
aI0
aa(lp17
I11
aI12
aI14
aI22
aa(lp18
I0
aI4
aI55
aI0
aa(lp19
I16
aI16
aI8
aI19
aa(lp20
I9
aI12
aI18
aI20
aa(lp21
I8
aI12
aI30
aI9
aa(lp22
I11
aI6
aI12
aI30
aa(lp23
I13
aI12
aI22
aI12
aa(lp24
I10
aI22
aI7
aI20
aa(lp25
I0
aI57
aI2
aI0
aa(lp26
I10
aI11
aI6
aI32
aa(lp27
I19
aI27
aI4
aI9
aa(lp28
I9
aI35
aI0
aI15
aa(lp29
I26
aI3
aI8
aI22
aa(lp30
I8
aI6
aI22
aI23
aa(lp31
I17
aI26
aI3
aI13
aa(lp32
I7
aI23
aI24
aI5
aa(lp33
I26
aI7
aI11
aI15
aa(lp34
I9
aI7
aI6
aI37
aa(lp35
I6
aI30
aI8
aI15
aa(lp36
I23
aI5
aI24
aI7
aa(lp37
I18
aI12
aI10
aI19
aa(lp38
I7
aI17
aI9
aI26
aa(lp39
I12
aI6
aI12
aI29
aa(lp40
I9
aI37
aI6
aI7
aa(lp41
I7
aI11
aI21
aI20
aa(lp42
I9
aI16
aI8
aI26
aa(lp43
I11
aI11
aI25
aI12
aa(lp44
I25
aI8
aI14
aI12
aa(lp45
I19
aI3
aI10
aI27
aa(lp46
I9
aI18
aI25
aI7
aa(lp47
I25
aI0
aI18
aI16
aa(lp48
I4
aI31
aI18
aI6
aa(lp49
I21
aI18
aI12
aI8
aa(lp50
I0
aI0
aI0
aI59
aa(lp51
I10
aI16
aI9
aI24
aa(lp52
I12
aI15
aI11
aI21
aa(lp53
I8
aI31
aI10
aI10
aa(lp54
I15
aI27
aI16
aI1
aa(lp55
I4
aI10
aI16
aI29
aa(lp56
I2
aI27
aI15
aI15
aa(lp57
I5
aI9
aI27
aI18
aa(lp58
I3
aI13
aI14
aI29
aa(lp59
I5
aI12
aI20
aI22
aa(lp60
I18
aI23
aI3
aI15
aa(lp61
I7
aI38
aI3
aI11
aa(lp62
I26
aI10
aI11
aI12
aa(lp63
I11
aI9
aI31
aI8
aa(lp64
I12
aI10
aI9
aI28
aa(lp65
I27
aI27
aI2
aI3
aa(lp66
I15
aI16
aI9
aI19
aa(lp67
I7
aI12
aI11
aI29
aa(lp68
I14
aI21
aI20
aI4
aa(lp69
I5
aI8
aI25
aI21
aa(lp70
I9
aI35
aI11
aI4
aa(lp71
I23
aI21
aI10
aI5
aa(lp72
I18
aI15
aI8
aI18
aa(lp73
I25
aI17
aI1
aI16
aa(lp74
I22
aI24
aI10
aI3
aa(lp75
I53
aI0
aI2
aI4
aa(lp76
I13
aI8
aI26
aI12
aa(lp77
I21
aI7
aI7
aI24
aa(lp78
I22
aI16
aI17
aI4
aa(lp79
I26
aI2
aI11
aI20
aa(lp80
I15
aI28
aI3
aI13
aa(lp81
I17
aI10
aI8
aI24
aa(lp82
I3
aI9
aI22
aI25
aa(lp83
I16
aI9
aI6
aI28
aa(lp84
I10
aI12
aI23
aI14
aa(lp85
I10
aI15
aI26
aI8
aa(lp86
I24
aI15
aI4
aI16
aa(lp87
I6
aI9
aI5
aI39
aa(lp88
I9
aI14
aI13
aI23
aa(lp89
I14
aI20
aI9
aI16
aa(lp90
I8
aI22
aI18
aI11
aa(lp91
I8
aI11
aI26
aI14
aa(lp92
I7
aI14
aI23
aI15
aa(lp93
I56
aI2
aI1
aI0
aa(lp94
I4
aI14
aI26
aI15
aa(lp95
I7
aI5
aI22
aI25
aa(lp96
I13
aI22
aI13
aI11
aa(lp97
I11
aI22
aI19
aI7
aa(lp98
I13
aI7
aI16
aI23
aa(lp99
I27
aI14
aI17
aI1
aa(lp100
I15
aI26
aI18
aI0
aa(lp101
I10
aI1
aI22
aI26
aa(lp102
I13
aI17
aI7
aI22
aa(lp103
I17
aI14
aI17
aI11
aaa(lp104
(lp105
I5
aI6
aI15
aI7
aa(lp106
I9
aI11
aI8
aI5
aa(lp107
I5
aI12
aI5
aI11
aa(lp108
I6
aI9
aI12
aI6
aa(lp109
I8
aI4
aI11
aI10
aa(lp110
I1
aI11
aI15
aI6
aa(lp111
I1
aI0
aI29
aI3
aa(lp112
I8
aI11
aI5
aI9
aa(lp113
I17
aI12
aI4
aI0
aa(lp114
I11
aI5
aI8
aI9
aa(lp115
I7
aI3
aI21
aI2
aa(lp116
I4
aI9
aI8
aI12
aa(lp117
I6
aI7
aI2
aI18
aa(lp118
I4
aI7
aI7
aI15
aa(lp119
I10
aI6
aI8
aI9
aa(lp120
I8
aI9
aI6
aI10
aa(lp121
I0
aI0
aI33
aI0
aa(lp122
I4
aI5
aI16
aI8
aa(lp123
I3
aI3
aI6
aI21
aa(lp124
I7
aI8
aI12
aI6
aa(lp125
I8
aI15
aI2
aI8
aa(lp126
I5
aI6
aI4
aI18
aa(lp127
I4
aI8
aI4
aI17
aa(lp128
I0
aI0
aI30
aI3
aa(lp129
I2
aI26
aI0
aI5
aa(lp130
I23
aI1
aI3
aI6
aa(lp131
I2
aI1
aI20
aI10
aa(lp132
I8
aI9
aI3
aI13
aa(lp133
I10
aI3
aI16
aI4
aa(lp134
I14
aI3
aI10
aI6
aa(lp135
I9
aI1
aI5
aI18
aa(lp136
I2
aI14
aI10
aI7
aa(lp137
I1
aI0
aI11
aI21
aa(lp138
I12
aI3
aI4
aI14
aa(lp139
I7
aI7
aI4
aI15
aa(lp140
I6
aI2
aI9
aI16
aa(lp141
I5
aI23
aI2
aI3
aa(lp142
I1
aI7
aI17
aI8
aa(lp143
I2
aI9
aI3
aI19
aa(lp144
I6
aI6
aI9
aI12
aa(lp145
I13
aI8
aI8
aI4
aa(lp146
I8
aI1
aI5
aI19
aa(lp147
I4
aI7
aI15
aI7
aa(lp148
I10
aI2
aI12
aI9
aa(lp149
I17
aI12
aI4
aI0
aa(lp150
I16
aI6
aI8
aI3
aa(lp151
I14
aI6
aI7
aI6
aa(lp152
I5
aI9
aI5
aI14
aa(lp153
I1
aI10
aI3
aI19
aa(lp154
I9
aI14
aI3
aI7
aa(lp155
I10
aI16
aI7
aI0
aa(lp156
I4
aI5
aI12
aI12
aa(lp157
I4
aI10
aI9
aI10
aa(lp158
I6
aI5
aI14
aI8
aa(lp159
I2
aI24
aI0
aI7
aa(lp160
I3
aI6
aI15
aI9
aa(lp161
I10
aI14
aI0
aI9
aa(lp162
I2
aI19
aI0
aI12
aa(lp163
I10
aI8
aI8
aI7
aa(lp164
I0
aI14
aI1
aI18
aa(lp165
I7
aI6
aI5
aI15
aa(lp166
I10
aI20
aI2
aI1
aa(lp167
I13
aI4
aI7
aI9
aa(lp168
I6
aI5
aI9
aI13
aa(lp169
I6
aI9
aI17
aI1
aa(lp170
I5
aI4
aI16
aI8
aa(lp171
I13
aI0
aI3
aI17
aa(lp172
I9
aI15
aI4
aI5
aa(lp173
I8
aI14
aI6
aI5
aa(lp174
I12
aI10
aI2
aI9
aa(lp175
I10
aI11
aI8
aI4
aa(lp176
I15
aI3
aI2
aI13
aa(lp177
I11
aI3
aI12
aI7
aa(lp178
I11
aI5
aI4
aI13
aa(lp179
I9
aI10
aI12
aI2
aa(lp180
I15
aI3
aI6
aI9
aa(lp181
I10
aI16
aI0
aI7
aa(lp182
I8
aI15
aI3
aI7
aa(lp183
I1
aI8
aI9
aI15
aa(lp184
I8
aI3
aI4
aI18
aa(lp185
I7
aI5
aI9
aI12
aa(lp186
I4
aI0
aI21
aI8
aa(lp187
I14
aI10
aI4
aI5
aa(lp188
I5
aI5
aI5
aI18
aa(lp189
I7
aI11
aI5
aI10
aa(lp190
I10
aI8
aI9
aI6
aa(lp191
I6
aI11
aI5
aI11
aa(lp192
I8
aI7
aI12
aI6
aa(lp193
I3
aI13
aI10
aI7
aa(lp194
I4
aI8
aI5
aI16
aa(lp195
I5
aI9
aI10
aI9
aa(lp196
I4
aI4
aI13
aI12
aa(lp197
I8
aI12
aI4
aI9
aa(lp198
I8
aI7
aI9
aI9
aa(lp199
I0
aI3
aI6
aI24
aa(lp200
I12
aI9
aI8
aI4
aa(lp201
I6
aI14
aI12
aI1
aa(lp202
I5
aI3
aI11
aI14
aa(lp203
I3
aI13
aI9
aI8
aa(lp204
I15
aI7
aI8
aI3
aaa(lp205
(lp206
I34
aI9
aI92
aI15
aa(lp207
I51
aI51
aI31
aI17
aa(lp208
I28
aI45
aI39
aI38
aa(lp209
I50
aI0
aI22
aI78
aa(lp210
I30
aI11
aI64
aI45
aa(lp211
I7
aI56
aI55
aI32
aa(lp212
I39
aI49
aI55
aI7
aa(lp213
I28
aI50
aI19
aI53
aa(lp214
I16
aI6
aI78
aI50
aa(lp215
I53
aI18
aI42
aI37
aa(lp216
I28
aI11
aI102
aI9
aa(lp217
I17
aI32
aI53
aI48
aa(lp218
I11
aI70
aI10
aI59
aa(lp219
I26
aI18
aI38
aI68
aa(lp220
I70
aI18
aI17
aI45
aa(lp221
I31
aI39
aI30
aI50
aa(lp222
I25
aI26
aI61
aI38
aa(lp223
I29
aI43
aI54
aI24
aa(lp224
I38
aI17
aI30
aI65
aa(lp225
I37
aI25
aI48
aI40
aa(lp226
I30
aI54
aI19
aI47
aa(lp227
I17
aI46
aI10
aI77
aa(lp228
I0
aI149
aI0
aI1
aa(lp229
I52
aI38
aI26
aI34
aa(lp230
I16
aI102
aI3
aI29
aa(lp231
I64
aI9
aI13
aI64
aa(lp232
I11
aI20
aI72
aI47
aa(lp233
I39
aI52
aI22
aI37
aa(lp234
I22
aI47
aI69
aI12
aa(lp235
I64
aI21
aI38
aI27
aa(lp236
I25
aI15
aI17
aI93
aa(lp237
I16
aI75
aI17
aI42
aa(lp238
I59
aI6
aI68
aI17
aa(lp239
I50
aI22
aI15
aI63
aa(lp240
I29
aI24
aI28
aI69
aa(lp241
I40
aI16
aI28
aI66
aa(lp242
I19
aI100
aI20
aI11
aa(lp243
I6
aI37
aI53
aI54
aa(lp244
I16
aI43
aI21
aI70
aa(lp245
I33
aI32
aI53
aI32
aa(lp246
I66
aI35
aI31
aI18
aa(lp247
I2
aI14
aI31
aI103
aa(lp248
I36
aI47
aI42
aI25
aa(lp249
I37
aI7
aI57
aI49
aa(lp250
I9
aI82
aI35
aI24
aa(lp251
I105
aI0
aI39
aI6
aa(lp252
I64
aI24
aI39
aI23
aa(lp253
I26
aI37
aI14
aI73
aa(lp254
I33
aI25
aI34
aI58
aa(lp255
I2
aI62
aI52
aI34
aa(lp256
I39
aI56
aI46
aI9
aa(lp257
I4
aI32
aI39
aI75
aa(lp258
I15
aI53
aI36
aI46
aa(lp259
I21
aI40
aI66
aI23
aa(lp260
I15
aI33
aI47
aI55
aa(lp261
I19
aI40
aI54
aI37
aa(lp262
I0
aI1
aI58
aI91
aa(lp263
I15
aI92
aI6
aI37
aa(lp264
I46
aI28
aI33
aI43
aa(lp265
I30
aI21
aI66
aI33
aa(lp266
I17
aI36
aI33
aI64
aa(lp267
I60
aI75
aI7
aI8
aa(lp268
I39
aI39
aI26
aI46
aa(lp269
I28
aI21
aI45
aI56
aa(lp270
I27
aI48
aI67
aI8
aa(lp271
I30
aI26
aI51
aI43
aa(lp272
I57
aI25
aI9
aI59
aa(lp273
I49
aI51
aI24
aI26
aa(lp274
I62
aI45
aI14
aI29
aa(lp275
I59
aI45
aI7
aI39
aa(lp276
I55
aI62
aI29
aI4
aa(lp277
I67
aI28
aI17
aI38
aa(lp278
I57
aI17
aI41
aI35
aa(lp279
I27
aI25
aI20
aI78
aa(lp280
I49
aI41
aI52
aI8
aa(lp281
I57
aI11
aI25
aI57
aa(lp282
I27
aI74
aI6
aI43
aa(lp283
I45
aI41
aI21
aI43
aa(lp284
I14
aI44
aI35
aI57
aa(lp285
I49
aI21
aI21
aI59
aa(lp286
I38
aI31
aI41
aI40
aa(lp287
I33
aI32
aI47
aI38
aa(lp288
I0
aI0
aI0
aI150
aa(lp289
I13
aI25
aI19
aI93
aa(lp290
I17
aI42
aI36
aI55
aa(lp291
I33
aI50
aI34
aI33
aa(lp292
I27
aI39
aI44
aI40
aa(lp293
I26
aI37
aI41
aI46
aa(lp294
I13
aI41
aI66
aI30
aa(lp295
I27
aI37
aI32
aI54
aa(lp296
I17
aI46
aI59
aI28
aa(lp297
I19
aI15
aI52
aI64
aa(lp298
I130
aI0
aI2
aI18
aa(lp299
I26
aI61
aI40
aI23
aa(lp300
I25
aI21
aI32
aI72
aa(lp301
I54
aI26
aI53
aI17
aa(lp302
I29
aI60
aI61
aI0
aa(lp303
I26
aI6
aI60
aI58
aa(lp304
I28
aI35
aI27
aI60
aa(lp305
I65
aI32
aI20
aI33
aaa(lp306
(lp307
I7
aI7
aI41
aI9
aa(lp308
I31
aI20
aI8
aI5
aa(lp309
I13
aI20
aI12
aI19
aa(lp310
I15
aI12
aI20
aI17
aa(lp311
I7
aI1
aI32
aI24
aa(lp312
I1
aI33
aI16
aI14
aa(lp313
I13
aI28
aI18
aI5
aa(lp314
I13
aI21
aI16
aI14
aa(lp315
I31
aI26
aI7
aI0
aa(lp316
I29
aI11
aI15
aI9
aa(lp317
I12
aI4
aI44
aI4
aa(lp318
I8
aI9
aI23
aI24
aa(lp319
I17
aI16
aI6
aI25
aa(lp320
I12
aI10
aI11
aI31
aa(lp321
I63
aI1
aI0
aI0
aa(lp322
I16
aI16
aI4
aI28
aa(lp323
I2
aI19
aI25
aI18
aa(lp324
I10
aI13
aI29
aI12
aa(lp325
I16
aI3
aI12
aI33
aa(lp326
I9
aI9
aI28
aI18
aa(lp327
I19
aI23
aI4
aI18
aa(lp328
I9
aI18
aI1
aI36
aa(lp329
I13
aI11
aI12
aI28
aa(lp330
I17
aI19
aI12
aI16
aa(lp331
I4
aI47
aI0
aI13
aa(lp332
I24
aI3
aI6
aI31
aa(lp333
I5
aI5
aI33
aI21
aa(lp334
I17
aI20
aI4
aI23
aa(lp335
I10
aI23
aI26
aI5
aa(lp336
I21
aI8
aI27
aI8
aa(lp337
I9
aI9
aI8
aI38
aa(lp338
I5
aI31
aI10
aI18
aa(lp339
I17
aI1
aI36
aI10
aa(lp340
I19
aI10
aI9
aI26
aa(lp341
I7
aI14
aI9
aI34
aa(lp342
I11
aI7
aI9
aI37
aa(lp343
I16
aI32
aI7
aI9
aa(lp344
I8
aI12
aI18
aI26
aa(lp345
I0
aI30
aI12
aI22
aa(lp346
I8
aI16
aI28
aI12
aa(lp347
I27
aI15
aI14
aI8
aa(lp348
I19
aI5
aI8
aI32
aa(lp349
I10
aI27
aI16
aI11
aa(lp350
I18
aI3
aI28
aI15
aa(lp351
I0
aI1
aI8
aI55
aa(lp352
I27
aI13
aI12
aI12
aa(lp353
I27
aI13
aI10
aI14
aa(lp354
I15
aI12
aI7
aI30
aa(lp355
I12
aI14
aI15
aI23
aa(lp356
I9
aI37
aI12
aI6
aa(lp357
I13
aI30
aI18
aI3
aa(lp358
I9
aI6
aI26
aI23
aa(lp359
I8
aI22
aI15
aI19
aa(lp360
I11
aI11
aI32
aI10
aa(lp361
I3
aI10
aI14
aI37
aa(lp362
I17
aI18
aI14
aI15
aa(lp363
I21
aI22
aI3
aI18
aa(lp364
I2
aI46
aI15
aI1
aa(lp365
I20
aI18
aI14
aI12
aa(lp366
I11
aI15
aI25
aI13
aa(lp367
I11
aI11
aI17
aI25
aa(lp368
I28
aI27
aI2
aI7
aa(lp369
I19
aI14
aI16
aI15
aa(lp370
I13
aI8
aI17
aI26
aa(lp371
I9
aI15
aI31
aI9
aa(lp372
I64
aI0
aI0
aI0
aa(lp373
I23
aI8
aI5
aI28
aa(lp374
I22
aI21
aI10
aI11
aa(lp375
I22
aI19
aI7
aI16
aa(lp376
I10
aI3
aI51
aI0
aa(lp377
I16
aI34
aI14
aI0
aa(lp378
I1
aI0
aI55
aI8
aa(lp379
I22
aI4
aI24
aI14
aa(lp380
I15
aI13
aI10
aI26
aa(lp381
I14
aI17
aI29
aI4
aa(lp382
I18
aI5
aI11
aI30
aa(lp383
I15
aI29
aI2
aI18
aa(lp384
I30
aI13
aI5
aI16
aa(lp385
I5
aI12
aI19
aI28
aa(lp386
I21
aI16
aI9
aI18
aa(lp387
I6
aI27
aI9
aI22
aa(lp388
I0
aI64
aI0
aI0
aa(lp389
I14
aI26
aI12
aI12
aa(lp390
I8
aI11
aI12
aI33
aa(lp391
I7
aI19
aI15
aI23
aa(lp392
I16
aI25
aI12
aI11
aa(lp393
I9
aI16
aI18
aI21
aa(lp394
I11
aI18
aI15
aI20
aa(lp395
I8
aI20
aI25
aI11
aa(lp396
I17
aI9
aI14
aI24
aa(lp397
I3
aI14
aI29
aI18
aa(lp398
I0
aI0
aI64
aI0
aa(lp399
I14
aI24
aI10
aI16
aa(lp400
I12
aI24
aI21
aI7
aa(lp401
I14
aI13
aI12
aI25
aa(lp402
I22
aI11
aI26
aI5
aa(lp403
I15
aI21
aI26
aI2
aa(lp404
I10
aI3
aI14
aI37
aa(lp405
I13
aI21
aI9
aI21
aa(lp406
I26
aI13
aI14
aI11
aaa(lp407
(lp408
I21
aI8
aI66
aI9
aa(lp409
I31
aI31
aI31
aI11
aa(lp410
I10
aI15
aI78
aI1
aa(lp411
I16
aI25
aI40
aI23
aa(lp412
I16
aI10
aI47
aI31
aa(lp413
I8
aI34
aI42
aI20
aa(lp414
I29
aI27
aI43
aI5
aa(lp415
I0
aI21
aI0
aI83
aa(lp416
I30
aI6
aI18
aI50
aa(lp417
I35
aI14
aI33
aI22
aa(lp418
I18
aI7
aI75
aI4
aa(lp419
I5
aI17
aI43
aI39
aa(lp420
I27
aI12
aI10
aI55
aa(lp421
I8
aI30
aI16
aI50
aa(lp422
I49
aI14
aI10
aI31
aa(lp423
I35
aI29
aI12
aI28
aa(lp424
I12
aI20
aI49
aI23
aa(lp425
I15
aI25
aI41
aI23
aa(lp426
I17
aI14
aI29
aI44
aa(lp427
I23
aI20
aI36
aI25
aa(lp428
I21
aI38
aI15
aI30
aa(lp429
I16
aI26
aI8
aI54
aa(lp430
I16
aI25
aI13
aI50
aa(lp431
I29
aI39
aI10
aI26
aa(lp432
I14
aI63
aI4
aI23
aa(lp433
I53
aI7
aI9
aI35
aa(lp434
I11
aI11
aI35
aI47
aa(lp435
I31
aI33
aI16
aI24
aa(lp436
I21
aI28
aI44
aI11
aa(lp437
I0
aI0
aI104
aI0
aa(lp438
I11
aI9
aI21
aI63
aa(lp439
I9
aI44
aI14
aI37
aa(lp440
I41
aI5
aI41
aI17
aa(lp441
I37
aI16
aI8
aI43
aa(lp442
I17
aI13
aI26
aI48
aa(lp443
I20
aI11
aI26
aI47
aa(lp444
I23
aI54
aI16
aI11
aa(lp445
I0
aI45
aI2
aI57
aa(lp446
I8
aI19
aI17
aI60
aa(lp447
I21
aI19
aI46
aI18
aa(lp448
I41
aI21
aI28
aI14
aa(lp449
I29
aI10
aI21
aI44
aa(lp450
I20
aI37
aI29
aI18
aa(lp451
I33
aI7
aI41
aI23
aa(lp452
I5
aI52
aI31
aI16
aa(lp453
I38
aI25
aI23
aI18
aa(lp454
I51
aI17
aI13
aI23
aa(lp455
I16
aI30
aI12
aI46
aa(lp456
I18
aI22
aI21
aI43
aa(lp457
I13
aI51
aI14
aI26
aa(lp458
I24
aI45
aI33
aI2
aa(lp459
I3
aI16
aI42
aI43
aa(lp460
I5
aI31
aI31
aI37
aa(lp461
I24
aI21
aI41
aI18
aa(lp462
I14
aI22
aI28
aI40
aa(lp463
I21
aI17
aI43
aI23
aa(lp464
I43
aI31
aI9
aI21
aa(lp465
I18
aI64
aI8
aI14
aa(lp466
I32
aI26
aI19
aI27
aa(lp467
I20
aI17
aI42
aI25
aa(lp468
I13
aI17
aI19
aI55
aa(lp469
I42
aI49
aI3
aI10
aa(lp470
I28
aI27
aI26
aI23
aa(lp471
I23
aI10
aI24
aI47
aa(lp472
I24
aI34
aI31
aI15
aa(lp473
I21
aI26
aI38
aI19
aa(lp474
I31
aI18
aI11
aI44
aa(lp475
I31
aI30
aI23
aI20
aa(lp476
I32
aI37
aI11
aI24
aa(lp477
I47
aI23
aI3
aI31
aa(lp478
I29
aI53
aI19
aI3
aa(lp479
I43
aI24
aI12
aI25
aa(lp480
I44
aI9
aI28
aI23
aa(lp481
I19
aI11
aI17
aI57
aa(lp482
I37
aI31
aI29
aI7
aa(lp483
I43
aI5
aI21
aI35
aa(lp484
I22
aI42
aI11
aI29
aa(lp485
I35
aI29
aI11
aI29
aa(lp486
I9
aI21
aI24
aI50
aa(lp487
I35
aI17
aI11
aI41
aa(lp488
I28
aI22
aI36
aI18
aa(lp489
I19
aI16
aI51
aI18
aa(lp490
I19
aI29
aI23
aI33
aa(lp491
I9
aI9
aI13
aI73
aa(lp492
I6
aI36
aI33
aI29
aa(lp493
I44
aI5
aI12
aI43
aa(lp494
I15
aI35
aI27
aI27
aa(lp495
I18
aI29
aI37
aI20
aa(lp496
I12
aI27
aI45
aI20
aa(lp497
I23
aI20
aI23
aI38
aa(lp498
I0
aI2
aI1
aI101
aa(lp499
I11
aI12
aI37
aI44
aa(lp500
I37
aI33
aI16
aI18
aa(lp501
I31
aI28
aI32
aI13
aa(lp502
I17
aI15
aI21
aI51
aa(lp503
I26
aI51
aI27
aI0
aa(lp504
I22
aI38
aI44
aI0
aa(lp505
I0
aI29
aI74
aI1
aa(lp506
I18
aI27
aI18
aI41
aa(lp507
I42
aI26
aI21
aI15
aaa(lp508
(lp509
I29
aI18
aI59
aI20
aa(lp510
I71
aI0
aI15
aI40
aa(lp511
I31
aI39
aI25
aI31
aa(lp512
I39
aI27
aI35
aI25
aa(lp513
I27
aI10
aI54
aI35
aa(lp514
I7
aI53
aI45
aI21
aa(lp515
I32
aI36
aI51
aI7
aa(lp516
I25
aI31
aI24
aI46
aa(lp517
I118
aI4
aI0
aI4
aa(lp518
I41
aI17
aI43
aI25
aa(lp519
I18
aI13
aI85
aI10
aa(lp520
I8
aI21
aI47
aI50
aa(lp521
I36
aI18
aI15
aI57
aa(lp522
I23
aI22
aI25
aI56
aa(lp523
I57
aI18
aI16
aI35
aa(lp524
I47
aI5
aI49
aI25
aa(lp525
I20
aI27
aI52
aI27
aa(lp526
I10
aI37
aI61
aI18
aa(lp527
I21
aI14
aI19
aI72
aa(lp528
I24
aI22
aI62
aI18
aa(lp529
I38
aI34
aI14
aI40
aa(lp530
I20
aI34
aI11
aI61
aa(lp531
I21
aI21
aI13
aI71
aa(lp532
I41
aI46
aI16
aI23
aa(lp533
I20
aI74
aI2
aI30
aa(lp534
I53
aI7
aI11
aI55
aa(lp535
I13
aI10
aI59
aI44
aa(lp536
I30
aI36
aI13
aI47
aa(lp537
I17
aI41
aI55
aI13
aa(lp538
I53
aI8
aI40
aI25
aa(lp539
I11
aI17
aI17
aI81
aa(lp540
I17
aI55
aI21
aI33
aa(lp541
I47
aI5
aI56
aI18
aa(lp542
I40
aI24
aI13
aI49
aa(lp543
I21
aI18
aI12
aI75
aa(lp544
I33
aI19
aI25
aI49
aa(lp545
I23
aI78
aI13
aI12
aa(lp546
I8
aI33
aI50
aI35
aa(lp547
I29
aI45
aI11
aI41
aa(lp548
I27
aI27
aI46
aI26
aa(lp549
I51
aI22
aI34
aI19
aa(lp550
I32
aI9
aI23
aI62
aa(lp551
I15
aI39
aI50
aI22
aa(lp552
I38
aI8
aI54
aI26
aa(lp553
I6
aI64
aI39
aI17
aa(lp554
I62
aI26
aI23
aI15
aa(lp555
I1
aI122
aI3
aI0
aa(lp556
I15
aI27
aI21
aI63
aa(lp557
I32
aI27
aI24
aI43
aa(lp558
I19
aI65
aI23
aI19
aa(lp559
I25
aI54
aI42
aI5
aa(lp560
I0
aI0
aI126
aI0
aa(lp561
I21
aI0
aI3
aI102
aa(lp562
I30
aI26
aI48
aI22
aa(lp563
I6
aI25
aI45
aI50
aa(lp564
I17
aI27
aI47
aI35
aa(lp565
I50
aI41
aI14
aI21
aa(lp566
I1
aI35
aI90
aI0
aa(lp567
I30
aI23
aI27
aI46
aa(lp568
I23
aI24
aI46
aI33
aa(lp569
I22
aI25
aI24
aI55
aa(lp570
I52
aI60
aI6
aI8
aa(lp571
I44
aI30
aI26
aI26
aa(lp572
I15
aI19
aI34
aI58
aa(lp573
I20
aI43
aI51
aI12
aa(lp574
I25
aI32
aI45
aI24
aa(lp575
I52
aI14
aI14
aI46
aa(lp576
I43
aI41
aI24
aI18
aa(lp577
I33
aI29
aI16
aI48
aa(lp578
I38
aI38
aI5
aI45
aa(lp579
I44
aI48
aI29
aI5
aa(lp580
I46
aI37
aI11
aI32
aa(lp581
I48
aI14
aI45
aI19
aa(lp582
I27
aI22
aI9
aI68
aa(lp583
I39
aI39
aI35
aI13
aa(lp584
I58
aI7
aI20
aI41
aa(lp585
I30
aI52
aI3
aI41
aa(lp586
I42
aI33
aI20
aI31
aa(lp587
I9
aI26
aI29
aI62
aa(lp588
I41
aI18
aI16
aI51
aa(lp589
I31
aI31
aI36
aI28
aa(lp590
I1
aI16
aI105
aI4
aa(lp591
I17
aI15
aI58
aI36
aa(lp592
I19
aI23
aI21
aI63
aa(lp593
I13
aI31
aI34
aI48
aa(lp594
I25
aI43
aI29
aI29
aa(lp595
I29
aI39
aI25
aI33
aa(lp596
I25
aI30
aI35
aI36
aa(lp597
I16
aI33
aI58
aI19
aa(lp598
I27
aI27
aI31
aI41
aa(lp599
I10
aI28
aI50
aI38
aa(lp600
I12
aI11
aI55
aI48
aa(lp601
I35
aI44
aI18
aI29
aa(lp602
I31
aI49
aI30
aI16
aa(lp603
I23
aI18
aI18
aI67
aa(lp604
I68
aI5
aI52
aI1
aa(lp605
I27
aI42
aI55
aI2
aa(lp606
I27
aI8
aI32
aI59
aa(lp607
I26
aI21
aI20
aI59
aa(lp608
I47
aI22
aI28
aI29
aaa(lp609
(lp610
I8
aI6
aI44
aI6
aa(lp611
I20
aI26
aI14
aI4
aa(lp612
I15
aI24
aI9
aI16
aa(lp613
I12
aI16
aI18
aI18
aa(lp614
I4
aI7
aI31
aI22
aa(lp615
I4
aI23
aI28
aI9
aa(lp616
I22
aI21
aI18
aI3
aa(lp617
I17
aI15
aI9
aI23
aa(lp618
I25
aI32
aI6
aI1
aa(lp619
I17
aI14
aI17
aI16
aa(lp620
I15
aI3
aI40
aI6
aa(lp621
I8
aI10
aI30
aI16
aa(lp622
I25
aI7
aI8
aI24
aa(lp623
I8
aI14
aI15
aI27
aa(lp624
I34
aI9
aI10
aI11
aa(lp625
I14
aI17
aI13
aI20
aa(lp626
I13
aI17
aI18
aI16
aa(lp627
I11
aI16
aI30
aI7
aa(lp628
I10
aI5
aI19
aI30
aa(lp629
I16
aI12
aI23
aI13
aa(lp630
I12
aI20
aI14
aI18
aa(lp631
I8
aI22
aI5
aI29
aa(lp632
I8
aI10
aI11
aI35
aa(lp633
I20
aI25
aI7
aI12
aa(lp634
I7
aI41
aI2
aI14
aa(lp635
I27
aI2
aI8
aI27
aa(lp636
I4
aI10
aI31
aI19
aa(lp637
I0
aI29
aI33
aI2
aa(lp638
I9
aI16
aI30
aI9
aa(lp639
I27
aI9
aI15
aI13
aa(lp640
I6
aI0
aI56
aI2
aa(lp641
I5
aI26
aI10
aI23
aa(lp642
I15
aI6
aI31
aI12
aa(lp643
I22
aI9
aI13
aI20
aa(lp644
I14
aI15
aI8
aI27
aa(lp645
I15
aI8
aI15
aI26
aa(lp646
I11
aI41
aI3
aI9
aa(lp647
I2
aI22
aI20
aI20
aa(lp648
I8
aI22
aI7
aI27
aa(lp649
I9
aI9
aI31
aI15
aa(lp650
I22
aI12
aI20
aI10
aa(lp651
I18
aI1
aI16
aI29
aa(lp652
I14
aI15
aI23
aI12
aa(lp653
I19
aI1
aI28
aI16
aa(lp654
I5
aI34
aI16
aI9
aa(lp655
I33
aI12
aI13
aI6
aa(lp656
I32
aI9
aI13
aI10
aa(lp657
I5
aI18
aI8
aI33
aa(lp658
I19
aI8
aI14
aI23
aa(lp659
I12
aI27
aI9
aI16
aa(lp660
I13
aI26
aI24
aI1
aa(lp661
I4
aI6
aI26
aI28
aa(lp662
I9
aI23
aI16
aI16
aa(lp663
I9
aI12
aI33
aI10
aa(lp664
I5
aI12
aI18
aI29
aa(lp665
I6
aI12
aI31
aI15
aa(lp666
I23
aI24
aI7
aI10
aa(lp667
I9
aI42
aI2
aI11
aa(lp668
I8
aI18
aI34
aI4
aa(lp669
I11
aI10
aI31
aI12
aa(lp670
I15
aI15
aI4
aI30
aa(lp671
I29
aI32
aI2
aI1
aa(lp672
I13
aI17
aI11
aI23
aa(lp673
I36
aI27
aI0
aI1
aa(lp674
I19
aI17
aI24
aI4
aa(lp675
I0
aI0
aI1
aI63
aa(lp676
I26
aI15
aI5
aI18
aa(lp677
I16
aI34
aI8
aI6
aa(lp678
I22
aI23
aI8
aI11
aa(lp679
I27
aI17
aI3
aI17
aa(lp680
I21
aI26
aI15
aI2
aa(lp681
I31
aI11
aI3
aI19
aa(lp682
I25
aI7
aI20
aI12
aa(lp683
I16
aI9
aI4
aI35
aa(lp684
I22
aI22
aI18
aI2
aa(lp685
I33
aI5
aI12
aI14
aa(lp686
I17
aI29
aI3
aI15
aa(lp687
I23
aI17
aI8
aI16
aa(lp688
I0
aI41
aI23
aI0
aa(lp689
I9
aI14
aI41
aI0
aa(lp690
I10
aI12
aI25
aI17
aa(lp691
I7
aI30
aI17
aI10
aa(lp692
I18
aI19
aI9
aI18
aa(lp693
I5
aI10
aI10
aI39
aa(lp694
I8
aI15
aI9
aI32
aa(lp695
I16
aI21
aI14
aI13
aa(lp696
I10
aI17
aI14
aI23
aa(lp697
I19
aI11
aI20
aI14
aa(lp698
I8
aI10
aI27
aI19
aa(lp699
I13
aI14
aI14
aI23
aa(lp700
I9
aI15
aI28
aI12
aa(lp701
I0
aI64
aI0
aI0
aa(lp702
I14
aI24
aI12
aI14
aa(lp703
I0
aI27
aI37
aI0
aa(lp704
I8
aI11
aI10
aI35
aa(lp705
I25
aI11
aI22
aI6
aa(lp706
I22
aI18
aI24
aI0
aa(lp707
I6
aI7
aI20
aI31
aa(lp708
I14
aI18
aI14
aI18
aa(lp709
I21
aI15
aI13
aI15
aaa(lp710
(lp711
I20
aI10
aI55
aI10
aa(lp712
I30
aI33
aI23
aI9
aa(lp713
I17
aI33
aI25
aI20
aa(lp714
I24
aI17
aI35
aI19
aa(lp715
I17
aI9
aI46
aI23
aa(lp716
I2
aI32
aI45
aI16
aa(lp717
I27
aI21
aI41
aI6
aa(lp718
I1
aI0
aI94
aI0
aa(lp719
I32
aI52
aI10
aI1
aa(lp720
I32
aI15
aI26
aI22
aa(lp721
I24
aI3
aI65
aI3
aa(lp722
I6
aI21
aI33
aI35
aa(lp723
I25
aI10
aI14
aI46
aa(lp724
I52
aI22
aI0
aI21
aa(lp725
I39
aI12
aI11
aI33
aa(lp726
I19
aI27
aI20
aI29
aa(lp727
I16
aI16
aI42
aI21
aa(lp728
I12
aI26
aI38
aI19
aa(lp729
I22
aI10
aI16
aI47
aa(lp730
I21
aI15
aI28
aI31
aa(lp731
I25
aI25
aI15
aI30
aa(lp732
I14
aI28
aI7
aI46
aa(lp733
I0
aI6
aI79
aI10
aa(lp734
I24
aI35
aI9
aI27
aa(lp735
I7
aI65
aI2
aI21
aa(lp736
I42
aI3
aI10
aI40
aa(lp737
I10
aI11
aI39
aI35
aa(lp738
I22
aI32
aI15
aI26
aa(lp739
I11
aI26
aI48
aI10
aa(lp740
I31
aI6
aI25
aI33
aa(lp741
I15
aI12
aI13
aI55
aa(lp742
I12
aI48
aI6
aI29
aa(lp743
I35
aI6
aI39
aI15
aa(lp744
I30
aI20
aI10
aI35
aa(lp745
I15
aI14
aI20
aI46
aa(lp746
I26
aI12
aI18
aI39
aa(lp747
I18
aI57
aI12
aI8
aa(lp748
I27
aI68
aI0
aI0
aa(lp749
I11
aI25
aI17
aI42
aa(lp750
I15
aI15
aI40
aI25
aa(lp751
I38
aI15
aI30
aI12
aa(lp752
I23
aI3
aI12
aI57
aa(lp753
I14
aI33
aI27
aI21
aa(lp754
I23
aI6
aI34
aI32
aa(lp755
I13
aI23
aI13
aI46
aa(lp756
I26
aI20
aI30
aI19
aa(lp757
I38
aI18
aI27
aI12
aa(lp758
I20
aI20
aI12
aI43
aa(lp759
I19
aI13
aI21
aI42
aa(lp760
I14
aI43
aI15
aI23
aa(lp761
I23
aI39
aI31
aI2
aa(lp762
I5
aI22
aI24
aI44
aa(lp763
I13
aI37
aI23
aI22
aa(lp764
I16
aI15
aI43
aI21
aa(lp765
I9
aI20
aI26
aI40
aa(lp766
I19
aI18
aI37
aI21
aa(lp767
I32
aI29
aI7
aI27
aa(lp768
I10
aI61
aI2
aI22
aa(lp769
I26
aI24
aI15
aI30
aa(lp770
I19
aI18
aI45
aI13
aa(lp771
I0
aI1
aI0
aI94
aa(lp772
I36
aI47
aI1
aI11
aa(lp773
I30
aI27
aI14
aI24
aa(lp774
I19
aI6
aI30
aI40
aa(lp775
I39
aI11
aI45
aI0
aa(lp776
I23
aI18
aI24
aI30
aa(lp777
I36
aI12
aI10
aI37
aa(lp778
I24
aI27
aI25
aI19
aa(lp779
I32
aI21
aI15
aI27
aa(lp780
I40
aI25
aI3
aI27
aa(lp781
I33
aI34
aI24
aI4
aa(lp782
I38
aI17
aI7
aI33
aa(lp783
I37
aI15
aI28
aI15
aa(lp784
I18
aI8
aI11
aI58
aa(lp785
I28
aI30
aI31
aI6
aa(lp786
I34
aI8
aI16
aI37
aa(lp787
I20
aI46
aI6
aI23
aa(lp788
I27
aI23
aI14
aI31
aa(lp789
I9
aI21
aI25
aI40
aa(lp790
I33
aI12
aI17
aI33
aa(lp791
I14
aI26
aI29
aI26
aa(lp792
I10
aI21
aI39
aI25
aa(lp793
I24
aI34
aI13
aI24
aa(lp794
I12
aI7
aI17
aI59
aa(lp795
I6
aI15
aI67
aI7
aa(lp796
I27
aI27
aI23
aI18
aa(lp797
I19
aI31
aI25
aI20
aa(lp798
I11
aI26
aI34
aI24
aa(lp799
I17
aI16
aI44
aI18
aa(lp800
I19
aI23
aI23
aI30
aa(lp801
I9
aI21
aI41
aI24
aa(lp802
I12
aI13
aI27
aI43
aa(lp803
I25
aI36
aI10
aI24
aa(lp804
I79
aI16
aI0
aI0
aa(lp805
I23
aI17
aI13
aI42
aa(lp806
I42
aI14
aI33
aI6
aa(lp807
I19
aI35
aI41
aI0
aa(lp808
I19
aI5
aI29
aI42
aa(lp809
I15
aI26
aI12
aI42
aa(lp810
I33
aI49
aI13
aI0
aaa(lp811
(lp812
I56
aI34
aI144
aI25
aa(lp813
I96
aI85
aI43
aI35
aa(lp814
I64
aI78
aI63
aI54
aa(lp815
I55
aI60
aI80
aI64
aa(lp816
I46
aI24
aI109
aI80
aa(lp817
I14
aI99
aI96
aI50
aa(lp818
I67
aI86
aI84
aI22
aa(lp819
I38
aI81
aI48
aI92
aa(lp820
I87
aI128
aI37
aI7
aa(lp821
I96
aI38
aI77
aI48
aa(lp822
I43
aI15
aI182
aI19
aa(lp823
I19
aI48
aI94
aI98
aa(lp824
I67
aI41
aI32
aI119
aa(lp825
I0
aI0
aI259
aI0
aa(lp826
I136
aI110
aI0
aI13
aa(lp827
I59
aI70
aI42
aI88
aa(lp828
I33
aI59
aI106
aI61
aa(lp829
I31
aI51
aI134
aI43
aa(lp830
I60
aI19
aI56
aI124
aa(lp831
I32
aI86
aI4
aI137
aa(lp832
I55
aI87
aI44
aI73
aa(lp833
I49
aI78
aI14
aI118
aa(lp834
I34
aI60
aI31
aI134
aa(lp835
I86
aI101
aI28
aI44
aa(lp836
I44
aI200
aI11
aI4
aa(lp837
I108
aI8
aI27
aI116
aa(lp838
I29
aI32
aI116
aI82
aa(lp839
I44
aI104
aI26
aI85
aa(lp840
I43
aI71
aI111
aI34
aa(lp841
I95
aI27
aI82
aI55
aa(lp842
I37
aI28
aI38
aI156
aa(lp843
I20
aI120
aI42
aI77
aa(lp844
I81
aI12
aI115
aI51
aa(lp845
I85
aI31
aI24
aI119
aa(lp846
I43
aI41
aI31
aI144
aa(lp847
I72
aI30
aI41
aI116
aa(lp848
I37
aI178
aI26
aI18
aa(lp849
I24
aI61
aI95
aI79
aa(lp850
I39
aI64
aI32
aI124
aa(lp851
I49
aI41
aI114
aI55
aa(lp852
I98
aI51
aI58
aI52
aa(lp853
I72
aI19
aI49
aI119
aa(lp854
I35
aI79
aI91
aI54
aa(lp855
I64
aI11
aI108
aI76
aa(lp856
I18
aI129
aI69
aI43
aa(lp857
I106
aI55
aI57
aI41
aa(lp858
I117
aI52
aI59
aI31
aa(lp859
I48
aI70
aI49
aI92
aa(lp860
I48
aI48
aI61
aI102
aa(lp861
I39
aI130
aI39
aI51
aa(lp862
I70
aI114
aI70
aI5
aa(lp863
I14
aI38
aI72
aI135
aa(lp864
I38
aI87
aI51
aI83
aa(lp865
I37
aI38
aI129
aI55
aa(lp866
I27
aI61
aI83
aI88
aa(lp867
I35
aI65
aI99
aI60
aa(lp868
I103
aI86
aI25
aI45
aa(lp869
I30
aI158
aI11
aI60
aa(lp870
I76
aI58
aI52
aI73
aa(lp871
I52
aI46
aI108
aI53
aa(lp872
I46
aI57
aI49
aI107
aa(lp873
I104
aI135
aI5
aI15
aa(lp874
I77
aI59
aI61
aI62
aa(lp875
I42
aI32
aI76
aI109
aa(lp876
I0
aI0
aI0
aI259
aa(lp877
I47
aI60
aI83
aI69
aa(lp878
I91
aI44
aI14
aI110
aa(lp879
I68
aI85
aI52
aI54
aa(lp880
I78
aI73
aI36
aI72
aa(lp881
I257
aI2
aI0
aI0
aa(lp882
I82
aI117
aI54
aI6
aa(lp883
I116
aI57
aI27
aI59
aa(lp884
I0
aI0
aI259
aI0
aa(lp885
I68
aI41
aI31
aI119
aa(lp886
I84
aI78
aI84
aI13
aa(lp887
I0
aI259
aI0
aI0
aa(lp888
I47
aI125
aI14
aI73
aa(lp889
I79
aI82
aI31
aI67
aa(lp890
I18
aI56
aI69
aI116
aa(lp891
I96
aI22
aI31
aI110
aa(lp892
I53
aI60
aI83
aI63
aa(lp893
I41
aI59
aI104
aI55
aa(lp894
I65
aI69
aI53
aI72
aa(lp895
I24
aI36
aI46
aI153
aa(lp896
I0
aI233
aI26
aI0
aa(lp897
I72
aI81
aI50
aI56
aa(lp898
I52
aI82
aI64
aI61
aa(lp899
I38
aI57
aI80
aI84
aa(lp900
I39
aI66
aI103
aI51
aa(lp901
I52
aI60
aI59
aI88
aa(lp902
I259
aI0
aI0
aI0
aa(lp903
I36
aI26
aI90
aI107
aa(lp904
I69
aI97
aI33
aI60
aa(lp905
I56
aI90
aI60
aI53
aa(lp906
I56
aI39
aI39
aI125
aa(lp907
I93
aI53
aI101
aI12
aa(lp908
I57
aI88
aI112
aI2
aa(lp909
I45
aI18
aI76
aI120
aa(lp910
I56
aI66
aI45
aI92
aa(lp911
I100
aI51
aI57
aI51
aaa(lp912
(lp913
I11
aI5
aI22
aI8
aa(lp914
I32
aI4
aI10
aI0
aa(lp915
I6
aI18
aI8
aI14
aa(lp916
I13
aI6
aI18
aI9
aa(lp917
I4
aI4
aI23
aI15
aa(lp918
I1
aI21
aI16
aI8
aa(lp919
I8
aI0
aI0
aI38
aa(lp920
I14
aI13
aI7
aI12
aa(lp921
I31
aI0
aI7
aI8
aa(lp922
I16
aI5
aI15
aI10
aa(lp923
I6
aI4
aI35
aI1
aa(lp924
I6
aI7
aI17
aI16
aa(lp925
I18
aI6
aI3
aI19
aa(lp926
I5
aI9
aI13
aI19
aa(lp927
I26
aI5
aI3
aI12
aa(lp928
I9
aI14
aI8
aI15
aa(lp929
I8
aI11
aI20
aI7
aa(lp930
I8
aI0
aI38
aI0
aa(lp931
I9
aI6
aI14
aI17
aa(lp932
I14
aI11
aI11
aI10
aa(lp933
I12
aI14
aI8
aI12
aa(lp934
I32
aI14
aI0
aI0
aa(lp935
I3
aI15
aI8
aI20
aa(lp936
I14
aI20
aI5
aI7
aa(lp937
I4
aI32
aI1
aI9
aa(lp938
I24
aI2
aI3
aI17
aa(lp939
I2
aI2
aI31
aI11
aa(lp940
I5
aI22
aI6
aI13
aa(lp941
I14
aI14
aI17
aI1
aa(lp942
I11
aI6
aI15
aI14
aa(lp943
I11
aI0
aI4
aI31
aa(lp944
I8
aI25
aI7
aI6
aa(lp945
I16
aI3
aI21
aI6
aa(lp946
I19
aI8
aI4
aI15
aa(lp947
I6
aI9
aI5
aI26
aa(lp948
I14
aI7
aI6
aI19
aa(lp949
I10
aI29
aI3
aI4
aa(lp950
I5
aI12
aI15
aI14
aa(lp951
I8
aI13
aI9
aI16
aa(lp952
I10
aI5
aI17
aI14
aa(lp953
I21
aI11
aI9
aI5
aa(lp954
I10
aI3
aI10
aI23
aa(lp955
I8
aI17
aI8
aI13
aa(lp956
I17
aI1
aI19
aI9
aa(lp957
I2
aI18
aI19
aI7
aa(lp958
I19
aI15
aI7
aI5
aa(lp959
I20
aI6
aI11
aI9
aa(lp960
I11
aI10
aI5
aI20
aa(lp961
I15
aI10
aI5
aI16
aa(lp962
I10
aI17
aI8
aI11
aa(lp963
I11
aI24
aI11
aI0
aa(lp964
I1
aI7
aI14
aI24
aa(lp965
I5
aI13
aI16
aI12
aa(lp966
I7
aI12
aI21
aI6
aa(lp967
I8
aI9
aI10
aI19
aa(lp968
I6
aI15
aI18
aI7
aa(lp969
I20
aI12
aI7
aI7
aa(lp970
I5
aI26
aI3
aI12
aa(lp971
I1
aI0
aI0
aI45
aa(lp972
I9
aI8
aI18
aI11
aa(lp973
I0
aI0
aI0
aI46
aa(lp974
I22
aI16
aI3
aI5
aa(lp975
I14
aI10
aI11
aI11
aa(lp976
I6
aI3
aI11
aI26
aa(lp977
I6
aI15
aI18
aI7
aa(lp978
I5
aI10
aI20
aI11
aa(lp979
I17
aI7
aI3
aI19
aa(lp980
I11
aI20
aI6
aI9
aa(lp981
I11
aI11
aI8
aI16
aa(lp982
I19
aI13
aI1
aI13
aa(lp983
I19
aI18
aI6
aI3
aa(lp984
I11
aI0
aI27
aI8
aa(lp985
I12
aI5
aI20
aI9
aa(lp986
I13
aI9
aI9
aI15
aa(lp987
I19
aI16
aI7
aI4
aa(lp988
I0
aI46
aI0
aI0
aa(lp989
I6
aI30
aI0
aI10
aa(lp990
I19
aI9
aI2
aI16
aa(lp991
I3
aI12
aI10
aI21
aa(lp992
I17
aI8
aI7
aI14
aa(lp993
I12
aI10
aI8
aI16
aa(lp994
I7
aI8
aI25
aI6
aa(lp995
I11
aI12
aI11
aI12
aa(lp996
I1
aI5
aI7
aI33
aa(lp997
I7
aI14
aI10
aI15
aa(lp998
I0
aI2
aI44
aI0
aa(lp999
I14
aI8
aI8
aI16
aa(lp1000
I5
aI11
aI17
aI13
aa(lp1001
I10
aI13
aI14
aI9
aa(lp1002
I5
aI13
aI9
aI19
aa(lp1003
I2
aI10
aI20
aI14
aa(lp1004
I3
aI4
aI13
aI26
aa(lp1005
I11
aI16
aI9
aI10
aa(lp1006
I14
aI19
aI10
aI3
aa(lp1007
I7
aI4
aI12
aI23
aa(lp1008
I15
aI8
aI20
aI3
aa(lp1009
I6
aI18
aI21
aI1
aa(lp1010
I11
aI3
aI13
aI19
aa(lp1011
I13
aI12
aI5
aI16
aa(lp1012
I17
aI10
aI8
aI11
aaasS'posCount'
p1013
(lp1014
I9
aI7
aI10
aI10
aI9
aI11
aI10
aI10
aI10
aI10
asS'features'
p1015
I100
sS'tu'
p1016
I0
sS'pos'
p1017
(lp1018
(lp1019
I8
aI10
aI12
aI14
aI21
aI46
aI66
aI71
aI89
aa(lp1020
I6
aI16
aI23
aI32
aI44
aI54
aI59
aa(lp1021
I3
aI8
aI12
aI22
aI41
aI45
aI49
aI56
aI82
aI92
aa(lp1022
I14
aI38
aI44
aI57
aI65
aI69
aI71
aI80
aI81
aI91
aa(lp1023
I2
aI7
aI8
aI29
aI37
aI85
aI90
aI95
aI97
aa(lp1024
I1
aI8
aI15
aI38
aI46
aI51
aI52
aI57
aI81
aI82
aI95
aa(lp1025
I27
aI30
aI58
aI63
aI65
aI78
aI79
aI81
aI91
aI93
aa(lp1026
I7
aI13
aI22
aI37
aI44
aI60
aI64
aI84
aI93
aI99
aa(lp1027
I13
aI14
aI19
aI24
aI64
aI69
aI72
aI75
aI84
aI90
aa(lp1028
I1
aI6
aI8
aI17
aI21
aI58
aI60
aI71
aI75
aI85
aasS'n'
p1029
I1000
sS'featureValues'
p1030
I4
sS'fnoise'
p1031
(lp1032
I1000
aI828
aI896
aI850
aI1000
aI1000
aI921
aI801
aI515
aI1000
aI941
aI1000
aI791
aI646
aI618
aI874
aI967
aI954
aI1000
aI741
aI1000
aI895
aI755
aI967
aI741
aI1000
aI1000
aI936
aI1000
aI896
aI936
aI1000
aI967
aI1000
aI1000
aI1000
aI1000
aI801
aI810
aI1000
aI1000
aI850
aI1000
aI1000
aI808
aI850
aI815
aI1000
aI1000
aI850
aI1000
aI874
aI874
aI1000
aI967
aI1000
aI850
aI810
aI890
aI967
aI859
aI1000
aI1000
aI936
aI646
aI872
aI941
aI1000
aI1000
aI677
aI1000
aI831
aI741
aI1000
aI1000
aI695
aI1000
aI1000
aI936
aI936
aI936
aI746
aI724
aI1000
aI646
aI850
aI1000
aI1000
aI1000
aI941
aI637
aI872
aI850
aI841
aI1000
aI770
aI1000
aI896
aI1000
aI905
asS't'
p1033
(lp1034
I59
aI33
aI150
aI64
aI104
aI126
aI64
aI95
aI259
aI46
asS'alpha'
p1035
F1.0
sS'lambda'
p1036
F9.0
sS'arch'
p1037
I10
sS'fvNoise'
p1038
(lp1039
(lp1040
I203
aI107
aI573
aI117
aa(lp1041
I287
aI272
aI177
aI92
aa(lp1042
I193
aI289
aI201
aI213
aa(lp1043
I199
aI184
aI268
aI199
aa(lp1044
I173
aI83
aI444
aI300
aa(lp1045
I46
aI386
aI375
aI193
aa(lp1046
I242
aI290
aI327
aI62
aa(lp1047
I152
aI242
aI139
aI268
aa(lp1048
I192
aI250
aI64
aI9
aa(lp1049
I356
aI145
aI292
aI207
aa(lp1050
I171
aI63
aI649
aI58
aa(lp1051
I90
aI186
aI370
aI354
aa(lp1052
I221
aI117
aI90
aI363
aa(lp1053
I97
aI122
aI139
aI288
aa(lp1054
I285
aI82
aI75
aI176
aa(lp1055
I207
aI237
aI143
aI287
aa(lp1056
I138
aI207
aI391
aI231
aa(lp1057
I130
aI228
aI433
aI163
aa(lp1058
I207
aI97
aI213
aI483
aa(lp1059
I164
aI134
aI270
aI173
aa(lp1060
I230
aI332
aI142
aI296
aa(lp1061
I138
aI258
aI60
aI439
aa(lp1062
I109
aI161
aI98
aI387
aa(lp1063
I302
aI350
aI117
aI198
aa(lp1064
I83
aI485
aI14
aI159
aa(lp1065
I444
aI45
aI98
aI413
aa(lp1066
I95
aI108
aI458
aI339
aa(lp1067
I213
aI334
aI108
aI281
aa(lp1068
I164
aI292
aI440
aI104
aa(lp1069
I342
aI95
aI263
aI196
aa(lp1070
I137
aI98
aI129
aI572
aa(lp1071
I100
aI468
aI145
aI287
aa(lp1072
I334
aI49
aI431
aI153
aa(lp1073
I332
aI155
aI110
aI403
aa(lp1074
I166
aI172
aI152
aI510
aa(lp1075
I249
aI118
aI189
aI444
aa(lp1076
I171
aI629
aI108
aI92
aa(lp1077
I61
aI195
aI289
aI256
aa(lp1078
I101
aI211
aI114
aI384
aa(lp1079
I189
aI181
aI409
aI221
aa(lp1080
I402
aI198
aI246
aI154
aa(lp1081
I230
aI54
aI154
aI412
aa(lp1082
I165
aI319
aI326
aI190
aa(lp1083
I284
aI46
aI399
aI271
aa(lp1084
I49
aI410
aI227
aI122
aa(lp1085
I348
aI190
aI185
aI127
aa(lp1086
I363
aI145
aI179
aI128
aa(lp1087
I171
aI249
aI142
aI438
aa(lp1088
I209
aI192
aI209
aI390
aa(lp1089
I133
aI415
aI133
aI169
aa(lp1090
I243
aI431
aI298
aI28
aa(lp1091
I48
aI142
aI271
aI413
aa(lp1092
I99
aI303
aI212
aI260
aa(lp1093
I166
aI189
aI454
aI191
aa(lp1094
I90
aI205
aI285
aI387
aa(lp1095
I148
aI230
aI378
aI244
aa(lp1096
I320
aI282
aI75
aI173
aa(lp1097
I96
aI500
aI35
aI179
aa(lp1098
I266
aI195
aI179
aI250
aa(lp1099
I186
aI168
aI412
aI201
aa(lp1100
I143
aI177
aI160
aI379
aa(lp1101
I410
aI488
aI33
aI69
aa(lp1102
I292
aI243
aI207
aI258
aa(lp1103
I159
aI116
aI257
aI404
aa(lp1104
I125
aI202
aI259
aI60
aa(lp1105
I161
aI184
aI302
aI225
aa(lp1106
I346
aI143
aI74
aI378
aa(lp1107
I296
aI345
aI186
aI173
aa(lp1108
I318
aI287
aI129
aI266
aa(lp1109
I267
aI188
aI25
aI197
aa(lp1110
I331
aI427
aI208
aI34
aa(lp1111
I356
aI177
aI79
aI219
aa(lp1112
I269
aI82
aI244
aI146
aa(lp1113
I235
aI150
aI122
aI493
aa(lp1114
I323
aI300
aI314
aI63
aa(lp1115
I284
aI46
aI122
aI243
aa(lp1116
I209
aI471
aI48
aI272
aa(lp1117
I325
aI272
aI123
aI280
aa(lp1118
I71
aI209
aI242
aI414
aa(lp1119
I316
aI126
aI122
aI372
aa(lp1120
I203
aI209
aI290
aI234
aa(lp1121
I124
aI151
aI313
aI158
aa(lp1122
I189
aI214
aI129
aI192
aa(lp1123
I102
aI140
aI155
aI603
aa(lp1124
I74
aI182
aI155
aI235
aa(lp1125
I213
aI275
aI180
aI182
aa(lp1126
I189
aI300
aI248
aI263
aa(lp1127
I169
aI237
aI317
aI277
aa(lp1128
I133
aI253
aI415
aI199
aa(lp1129
I187
aI211
aI210
aI333
aa(lp1130
I59
aI157
aI263
aI158
aa(lp1131
I104
aI90
aI309
aI369
aa(lp1132
I226
aI308
aI125
aI191
aa(lp1133
I189
aI300
aI221
aI131
aa(lp1134
I186
aI148
aI179
aI487
aa(lp1135
I290
aI146
aI280
aI54
aa(lp1136
I218
aI360
aI414
aI8
aa(lp1137
I159
aI54
aI277
aI406
aa(lp1138
I199
aI256
aI166
aI379
aa(lp1139
I350
aI190
aI186
aI179
aas.